(dp1
S'0000000000000000000000100101001001111101101010110111100001100100'
p2
V\u5168\u56fd \u626b\u9ec4\u6253\u975e\u529e \u516c\u5e03 \u79cb\u98ce \u4e13\u9879\u884c\u52a8 \u7b2c\u4e8c\u6279 \u4e09\u5047 \u6848\u4ef6 \u4e2d\u9752\u5728\u7ebf \u5317\u4eac 5\u6708 \u65e5\u7535 \u4e2d\u56fd \u9752\u5e74\u62a5 \u4e2d\u9752\u5728\u7ebf \u8bb0\u8005 \u5218 \u58f0 \u5168\u56fd \u626b\u9ec4\u6253\u975e \u529e\u516c\u5ba4 \u901a\u62a5 \u79cb\u98ce \u4e13\u9879\u884c\u52a8 \u7b2c\u4e8c\u6279 \u91cd\u70b9 \u6848\u4ef6 \u6279 \u6848\u4ef6 \u4e2d \u9655\u897f \u6cb3\u5317 \u591a\u5730 \u7fa4\u4f17\u4e3e\u62a5 \u6848\u4ef6\u7ebf\u7d22 \u5f3a\u5316 \u4e09\u5047 \u6848\u4ef6 \u5211\u4e8b\u6253\u51fb \u529b\u5ea6 \u6df1\u6316 \u8fdd\u6cd5\u72af\u7f6a \u6d3b\u52a8 \u6e90\u5934 \u5f7b\u67e5 \u8fdd\u6cd5 \u5229\u76ca\u94fe\u6761 \u4e25\u8083\u67e5\u5904 \u4e0d\u6cd5 \u673a\u6784 \u4eba\u5458 \u5168\u56fd \u626b\u9ec4\u6253\u975e\u529e \u516c\u5e03 \u79cb\u98ce \u4e13\u9879\u884c\u52a8 \u7b2c\u4e8c\u6279 \u4e09\u5047 \u6848\u4ef6 \u56fe \u6cb3\u5317\u7701 \u8861\u6c34\u5e02 \u5047\u8bb0\u8005 \u56e2\u4f19 \u5047\u5192 \u8bc1\u4ef6 \u8861\u6c34\u5e02 \u516c\u5b89\u5c40 \u63d0\u4f9b \u6848\u4ef6 \u6848\u60c5 \u7b80\u8981 \u6cb3\u5317\u8861\u6c34 \u53f2 \u7b49\u4eba \u5192\u5145 \u8bb0\u8005 \u6572\u8bc8\u52d2\u7d22 \u6848 \u5e74 2\u6708 \u8861\u6c34\u5e02 \u76f8\u5173\u90e8\u95e8 \u6253\u6389 \u5047\u5192 \u65b0\u95fb\u8bb0\u8005 \u6572\u8bc8\u52d2\u7d22 \u72af\u7f6a\u56e2\u4f19 \u67e5\u6263 \u7528\u4e8e \u4f5c\u6848 \u8f66\u8f86 \u53f0 \u624b\u673a \u90e8 \u7535\u8111 \u4e00\u53f0 \u5047\u8bc1\u4ef6 \u5047\u80f8 \u724c \u5047 \u8f66\u6807 \u4f59\u4e2a \u7ecf\u67e5 \u5e74 3\u6708 \u72af\u7f6a\u56e2\u4f19 \u6210\u5458 \u9a7e\u8f66 \u6d41\u7a9c \u77f3\u5bb6\u5e84 \u8861\u6c34 \u6ca7\u5dde \u66dd\u5149 \u520a\u53d1 \u8d1f\u9762\u62a5\u9053 \u76f8 \u8981\u631f \u4f01\u4e1a \u6572\u8bc8\u94b1\u8d22 \u67e5\u5b9e \u6848\u4ef6 \u6d89\u6848\u91d1\u989d \u4e07\u5143 \u56e2\u4f19 \u53f2 \u4e07\u5143 4\u4e07 \u5143 \u4e0d\u7b49 \u4ef7\u683c \u529e\u7406 \u4e2d\u56fd\u65b0\u95fb \u64ad\u62a5 \u793e \u5047 \u8bb0\u8005\u8bc1 4\u6708 \u5e95 \u516c\u5b89\u673a\u5173 \u5171 \u6293\u83b7 \u53f2 \u72af\u7f6a\u5acc\u7591\u4eba \u79fb\u4ea4 \u68c0\u5bdf\u9662 \u5ba1\u67e5\u8d77\u8bc9 \u8be5\u6848 \u8fdb\u4e00\u6b65 \u67e5\u5904 \u4e2d \u5168\u56fd \u626b\u9ec4\u6253\u975e\u529e \u516c\u5e03 \u79cb\u98ce \u4e13\u9879\u884c\u52a8 \u7b2c\u4e8c\u6279 \u4e09\u5047 \u6848\u4ef6 \u6cb3\u5317\u8861\u6c34 \u53f2 \u7b49\u4eba \u5192\u5145 \u8bb0\u8005 \u6572\u8bc8\u52d2\u7d22 \u6848 \u4e2d \u4e00\u540d \u5047\u8bb0\u8005 \u6307\u8ba4\u73b0\u573a \u8861\u6c34\u5e02 \u516c\u5b89\u5c40 \u63d0\u4f9b \u9655\u897f\u54b8\u9633 \u5047\u8bb0\u8005 \u56e2\u4f19 \u6572\u8bc8\u52d2\u7d22 \u6848 \u5e74 3\u6708 \u54b8\u9633\u5e02 \u516c\u5b89\u90e8\u95e8 \u7acb\u6848\u67e5\u5904 \u5047\u8bb0\u8005 \u56e2\u4f19 \u6572\u8bc8\u52d2\u7d22 \u6848 \u7ecf\u67e5 \u72af\u7f6a\u5acc\u7591\u4eba \u5434\u67d0 \u5e74 10\u6708 5\u65e5 \u5efa\u7acb \u9655\u897f \u82f1\u624d\u7f51 \u54b8\u9633 \u5de5\u4f5c\u7ad9 \u4efb\u547d \u5f20\u67d0\u67d0 \u526f\u7ad9\u957f \u9ad8 \u4eba\u4e3a \u5de5\u4f5c\u4eba\u5458 \u56e2\u4f19 \u5229\u7528 \u7f51\u7ad9 \u5de5\u4f5c\u4eba\u5458 \u8bb0\u8005 \u8eab\u4efd \u66dd\u5149 \u8bca\u6240 \u7802\u77f3\u5382 \u8bc1\u7167 \u4e0d\u9f50 \u95ee \u9898\u4e3a \u501f\u53e3 \u5bb6 \u5355\u4f4d \u5b9e\u65bd \u6572\u8bc8 \u6d89\u6848\u91d1\u989d 7\u4e07 \u4f59\u5143 \u5434\u67d0 \u540d \u72af\u7f6a\u5acc\u7591\u4eba \u5df2\u88ab \u68c0\u5bdf\u9662 \u6279\u51c6\u902e\u6355 \u6848\u4ef6 \u8fdb\u4e00\u6b65 \u529e\u7406 \u4e2d \u9655\u897f\u5546\u6d1b \u5047\u8bb0\u8005 \u8bc8\u9a97\u6848 \u5e74 10\u6708 \u5546\u6d1b\u5e02 \u5546\u5dde\u533a \u516c\u5b89\u5c40 \u63a5 \u7fa4\u4f17\u4e3e\u62a5 \u7acb\u6848 \u67e5\u529e \u5047\u8bb0\u8005 \u8bc8\u9a97\u6848 \u7ecf\u67e5 \u72af\u7f6a\u5acc\u7591\u4eba \u718a \u4f2a\u9020 \u5047 \u8bb0\u8005\u8bc1 \u5192\u5145 \u9655\u897f \u65e5\u62a5\u793e \u8bb0\u8005 \u62a5\u9053 \u8d1f\u9762 \u95ee \u9898\u4e3a \u8981\u631f \u8bc8\u9a97 \u6d89\u6848\u91d1\u989d 35\u4e07 \u4f59\u5143 \u5e74 11\u6708 \u65e5 \u718a \u5546\u5dde\u533a \u4eba\u6c11\u68c0\u5bdf\u9662 \u6279\u51c6\u902e\u6355 \u8be5\u6848 \u6cd5\u9662 \u5ba1\u7406 \u9636\u6bb5 \u6e56\u5357\u5e38\u5fb7 \u679a \u7b49\u4eba \u5047\u5192 \u8bb0\u8005 \u8bc8\u9a97\u6848 \u8fd1\u65e5 \u5e38\u5fb7\u5e02 \u77f3\u95e8\u53bf \u516c\u5b89\u90e8\u95e8 \u7834\u83b7 \u5047\u5192 \u8bb0\u8005 \u8bc8\u9a97\u6848 \u6293\u83b7 \u540d \u72af\u7f6a\u5acc\u7591\u4eba \u7ecf\u67e5 \u5e74 9\u6708 \u5e74 11\u6708 \u72af\u7f6a\u5acc\u7591\u4eba \u679a \u7b49\u4eba \u4f2a\u9020 \u5e38\u5fb7 \u6cd5\u5236\u5468\u62a5 \u4e2d \u6e2f\u6fb3 \u56fd\u9645 \u65b0\u95fb\u62a5 \u8bb0\u8005\u8bc1 \u5192\u5145 \u5a92\u4f53\u8bb0\u8005 \u77f3\u95e8\u53bf \u62db\u6447\u649e\u9a97 \u9a97\u53d6 \u540d \u88ab\u5bb3\u4eba 4\u4e07 \u4f59\u5143 \u8be5\u6848 \u8fdb\u4e00\u6b65 \u529e\u7406 \u4e2d \u6d77\u5357 \u4e50\u4e1c \u8463 \u5047\u5192 \u8bb0\u8005 \u8bc8\u9a97\u6848 \u5e74 8\u6708 \u4e50\u4e1c\u53bf \u516c\u5b89\u90e8\u95e8 \u63a5 \u4e3e\u62a5 \u8463 \u5047\u5192 \u5357\u6d77 \u6559\u80b2\u7f51 \u8bb0\u8005 \u5b9e\u65bd \u8bc8\u9a97 \u7ecf\u67e5 14\u5e74 2\u6708 \u72af\u7f6a\u5acc\u7591\u4eba \u8463 \u8bb0\u8005 \u8eab\u4efd \u79f0 \u7701 \u6276\u8d2b\u529e \u9886\u5bfc \u5173\u7cfb \u5f88\u597d \u7231\u5fc3 \u6276\u8d2b \u76d6\u623f \u9879\u76ee \u540d\u4e49 \u7816\u5382 \u7b7e\u8ba2 \u8d4a\u6b20 \u534f\u8bae \u63d0\u4f9b \u5efa\u6750 \u6e38\u8bf4 \u6751\u6c11 \u8c0e\u79f0 \u7533\u8bf7 \u76d6\u623f \u6276\u8d2b \u6307\u6807 \u6751\u6c11 \u4ea4\u7eb3 15\u4e07 \u5143 \u62bc\u91d1 \u5373\u53ef \u9886\u53d6 \u6276\u8d2b \u7816 4\u4e07 \u5757 \u6276\u8d2b \u6c34\u6ce5 \u5428 \u623f\u5b50 \u76d6 \u540e\u9000 \u62bc\u91d1 12\u4e07 \u5143 \u632a\u7528 \u6536\u53d6 \u62bc\u91d1 \u9000\u8fd8\u7ed9 \u5efa\u597d \u623f \u6751\u6c11 \u66f4\u591a \u6751\u6c11 \u4fe1\u4ee5\u4e3a\u771f \u53d7\u9a97\u8005 \u904d\u53ca \u8be5\u53bf \u9547 200\u591a \u6237 \u516c\u5b89\u673a\u5173 \u67e5\u5b9e \u53d7\u9a97 \u6751\u6c11 \u6570\u5341\u6237 \u6d89\u6848\u91d1\u989d \u4f59\u4e07\u5143 \u8463 \u5df2\u88ab \u68c0\u5bdf\u9662 \u6279\u51c6\u902e\u6355 \u6848\u4ef6 \u8fdb\u4e00\u6b65 \u529e\u7406 \u4e2d \u603b\u7f16\u5ba4 \u7f16\u8f91
p3
sS'0010000000000000000000010001000111011000011001001001101111110100'
p4
V\u63a8\u52a8 \u7eff\u8272\u53d1\u5c55 \u8425\u9020 \u78a7\u6c34\u84dd\u5929 \u5b66\u4e60 \u4e60\u8fd1\u5e73 \u603b\u4e66\u8bb0 \u4e2d\u592e\u653f\u6cbb\u5c40 \u7b2c\u56db\u5341\u4e00 \u6b21 \u96c6\u4f53\u5b66\u4e60 \u65f6 \u91cd\u8981\u8bb2\u8bdd \u751f\u6001 \u5174 \u6587\u660e \u5174 \u751f\u6001 \u8870 \u6587\u660e \u8870 \u63a8\u52a8 \u7eff\u8272\u53d1\u5c55 \u65b9\u5f0f \u751f\u6d3b\u65b9\u5f0f \u8d2f\u5f7b \u65b0 \u53d1\u5c55\u7406\u5ff5 \u751f\u6001\u6587\u660e \u5efa\u8bbe \u6446\u5728 \u5168\u5c40 \u5de5\u4f5c \u5730\u4f4d \u4e60\u8fd1\u5e73 \u603b\u4e66\u8bb0 \u4e3b\u6301 \u4e2d\u592e\u653f\u6cbb\u5c40 \u7b2c\u56db\u5341\u4e00 \u6b21 \u96c6\u4f53\u5b66\u4e60 \u65f6 \u7acb\u8db3 \u6218\u7565 \u5168\u5c40 \u628a\u63e1 \u53d1\u5c55\u89c4\u5f8b \u6df1\u523b \u9610\u91ca \u7eff\u8272\u53d1\u5c55 \u65b9\u5f0f \u751f\u6d3b\u65b9\u5f0f \u91cd\u5927\u610f\u4e49 \u5bf9\u6b64 \u63d0\u51fa \u9879 \u91cd\u70b9\u4efb\u52a1 \u8bb2\u8bdd \u4f53\u73b0 \u7cfb\u7edf \u601d\u7ef4 \u95ee\u9898\u5bfc\u5411 \u8fdb\u4e00\u6b65 \u53d1\u5c55 \u89c2\u5ff5 \u52aa\u529b\u5b9e\u73b0 \u7ecf\u6d4e\u793e\u4f1a \u53d1\u5c55 \u751f\u6001\u73af\u5883 \u4fdd\u62a4 \u534f\u540c \u5171\u8fdb \u63d0\u4f9b \u6307\u660e \u5b9e\u8df5 \u8def\u5f84 \u5929 \u4e0d\u8a00 \u56db\u65f6 \u884c \u4e0d\u8bed \u767e\u7269 \u751f \u53e4\u5f80\u4eca\u6765 \u5b9e\u8df5 \u4eba\u7c7b\u53d1\u5c55 \u6d3b\u52a8 \u5c0a\u91cd \u81ea\u7136 \u987a\u5e94 \u81ea\u7136 \u4fdd\u62a4\u81ea\u7136 \u8fd9\u662f \u6297\u62d2 \u53d1\u5c55\u89c4\u5f8b \u4eba\u4e0e\u81ea\u7136 \u548c\u8c10 \u5171 \u751f\u7684 \u5fc5\u7531\u4e4b\u8def \u6539\u9769\u5f00\u653e \u6211\u56fd \u7ecf\u6d4e\u793e\u4f1a \u53d1\u5c55 \u4e3e\u4e16\u77a9\u76ee \u5386\u53f2\u6027 \u6210\u5c31 \u79ef\u7d2f \u751f\u6001\u73af\u5883 \u65e0\u8bba\u662f \u8865\u9f50 \u53d1\u5c55 \u77ed\u677f \u56de\u5e94 \u7fa4\u4f17 \u5173\u5207 \u90fd\u8981 \u6c42 \u63a8\u52a8 \u7eff\u8272\u53d1\u5c55 \u65b9\u5f0f \u751f\u6d3b\u65b9\u5f0f \u4ece\u6839\u672c\u4e0a \u7834\u89e3 \u73af\u5883 \u96be\u9898 \u6211\u56fd \u5efa\u8bbe \u751f\u6001\u73af\u5883 \u4f18\u7f8e \u56fd\u5bb6 \u4eba\u6c11\u7fa4\u4f17 \u521b\u9020 \u751f\u4ea7 \u751f\u6d3b\u73af\u5883 \u601d\u60f3 \u5148\u5bfc \u7406\u5ff5 \u5b9e\u8df5 \u6307\u5357 \u63a8\u52a8 \u7eff\u8272\u53d1\u5c55 \u65b9\u5f0f \u751f\u6d3b\u65b9\u5f0f \u53d1\u5c55\u89c2 \u4e00\u573a \u6df1\u523b \u9769\u547d 6\u6708 5\u65e5 \u73af\u5883 \u65e5 \u4e3b\u9898 \u8bbe \u5b9a\u4e3a \u7eff\u6c34\u9752\u5c71 \u91d1\u5c71\u94f6\u5c71 \u65e8\u5728 \u5f15\u5bfc \u5168 \u793e\u4f1a \u7262\u56fa \u6811\u7acb \u7eff\u8272\u53d1\u5c55 \u610f\u8bc6 \u8d2f\u5f7b \u65b0 \u53d1\u5c55\u7406\u5ff5 \u6b63\u786e\u5904\u7406 \u7ecf\u6d4e\u53d1\u5c55 \u751f\u6001\u73af\u5883 \u4fdd\u62a4 \u5173\u7cfb \u4fdd\u62a4\u773c\u775b \u4fdd\u62a4 \u751f\u6001\u73af\u5883 \u751f\u547d \u751f\u6001\u73af\u5883 \u751f\u6001\u73af\u5883 \u4eba\u6c11 \u751f\u6d3b \u589e\u957f\u70b9 \u7ecf\u6d4e\u793e\u4f1a \u6301\u7eed \u5065\u5eb7\u53d1\u5c55 \u652f\u6491\u70b9 \u5c55\u73b0 \u6211\u56fd \u826f\u597d\u5f62\u8c61 \u53d1\u529b\u70b9 \u5f00\u521b \u751f\u6001\u6587\u660e \u5efa\u8bbe \u65b0\u5c40\u9762 \u63a8\u52a8 \u7eff\u8272\u53d1\u5c55 \u65b9\u5f0f \u751f\u6d3b\u65b9\u5f0f \u6d89\u53ca \u65b9\u65b9\u9762\u9762 \u4e00\u9879 \u7cfb\u7edf\u5de5\u7a0b \u6ce8\u91cd \u89e3\u51b3 \u7740\u773c \u957f\u8fdc\u53d1\u5c55 \u7b56 \u5e76\u4e3e \u6807\u672c\u517c\u6cbb \u7b51\u7262 \u6839\u57fa \u884c\u7a33\u81f4\u8fdc \u8bb2 \u56f4\u7ed5 \u4e60\u603b\u4e66\u8bb0 \u63d0\u51fa \u9879 \u91cd\u70b9\u4efb\u52a1 \u6301\u7eed\u53d1\u529b \u52a1 \u6c42\u5b9e\u6548 \u91cd\u70b9 \u57fa\u7840 \u4e24\u624b\u6293 \u4e24\u624b\u786c \u52a0\u5927 \u73af\u5883\u6c61\u67d3 \u7efc\u5408\u6cbb\u7406 \u52a0\u5feb \u63a8\u8fdb \u751f\u6001\u4fdd\u62a4 \u4fee\u590d \u7efc\u5408\u6cbb\u7406 \u7a81\u7834 \u96be\u70b9\u95ee\u9898 \u4fdd\u62a4 \u4fee\u590d \u592f\u5b9e \u751f\u6001 \u57fa\u7840 \u751f\u4ea7 \u751f\u6d3b \u53cc\u7ba1\u9f50\u4e0b \u8d44\u6e90 \u8282\u7ea6\u96c6\u7ea6 \u5229\u7528 \u5021\u5bfc \u63a8\u5e7f \u7eff\u8272\u6d88\u8d39 \u8d44\u6e90 \u9ad8\u6548 \u5f00\u53d1\u5229\u7528 \u751f\u4ea7 \u7aef \u53d1\u529b \u7eff\u8272 \u8282\u7ea6 \u4f4e\u78b3 \u6587\u660e \u751f\u6d3b\u65b9\u5f0f \u6d88\u8d39\u7aef \u7740\u529b \u76f8\u4e92\u4fc3\u8fdb \u76f8\u5f97\u76ca\u5f70 \u5c40\u9762 \u805a\u7126 \u4fdd\u969c \u5f15\u9886 \u7740\u529b \u5b8c\u5584 \u751f\u6001\u6587\u660e \u5236\u5ea6 \u4f53\u7cfb \u5207\u5b9e \u52a0\u5feb \u8f6c\u53d8\u7ecf\u6d4e \u53d1\u5c55\u65b9\u5f0f \u5236\u5ea6 \u63d0\u4f9b \u751f\u6001\u6587\u660e \u5efa\u8bbe \u4fdd\u969c \u7eff\u8272\u53d1\u5c55 \u65b9\u5f0f \u5f15\u9886 \u7ecf\u6d4e \u5065\u5eb7\u53d1\u5c55 \u53d1\u5c55 \u57fa\u70b9 \u653e\u5230 \u521b\u65b0 \u53ef\u6301\u7eed \u53d1\u5c55 \u6ce8\u5165 \u4e0d\u7aed \u52a8\u529b \u6d3b\u529b \u751f\u6001\u73af\u5883 \u4fdd\u62a4 \u529f\u5728\u5f53\u4ee3 \u5229 \u5343\u79cb \u4e8b\u4e1a \u843d\u5230\u5b9e\u5904 \u5173\u952e \u9886\u5bfc\u5e72\u90e8 \u751f\u6001\u73af\u5883 \u4e8b\u4ef6 \u80cc\u540e \u90fd\u6709 \u5e72\u90e8 \u4e0d\u8d1f\u8d23\u4efb \u4e0d\u4f5c\u4e3a \u6709\u6743 \u5fc5 \u6709\u8d23 \u6709\u8d23 \u62c5\u5f53 \u8981\u4ee5 \u843d\u5b9e \u9886\u5bfc\u5e72\u90e8 \u4efb\u671f \u751f\u6001\u6587\u660e \u5efa\u8bbe \u8d23\u4efb \u5236\u4e3a \u6293\u624b \u751f\u6001\u73af\u5883 \u635f\u5bb3 \u8d1f\u6709\u8d23\u4efb \u9886\u5bfc\u5e72\u90e8 \u4e25\u8083 \u8ffd\u8d23 \u5404\u7ea7\u515a\u59d4 \u653f\u5e9c \u5207\u5b9e \u91cd\u89c6 \u52a0\u5f3a\u9886\u5bfc \u7eaa\u68c0\u76d1\u5bdf \u673a\u5173 \u7ec4\u7ec7\u90e8\u95e8 \u90e8\u95e8 \u5404\u5c3d\u5176\u8d23 \u9f50\u6293\u5171\u7ba1 \u5408\u529b \u5012\u903c \u843d\u5b9e \u538b\u529b \u751f\u6001\u6587\u660e \u5efa\u8bbe \u5404\u9879\u4efb\u52a1 \u843d\u5730 \u751f\u6548 \u751f\u6001\u6587\u660e \u5efa\u8bbe \u4eba\u4eba\u6709\u8d23 \u53d7\u76ca \u6bcf\u4e2a\u4eba \u90fd\u662f \u8df5\u884c\u8005 \u63a8\u52a8\u8005 \u79ef\u6781\u884c\u52a8 \u52a0\u5feb \u6784\u5efa \u79d1\u5b66 \u9002\u5ea6 \u6709\u5e8f \u56fd\u571f \u7a7a\u95f4\u5e03\u5c40 \u4f53\u7cfb \u7eff\u8272 \u5faa\u73af \u4f4e\u78b3\u53d1\u5c55 \u4ea7\u4e1a\u4f53\u7cfb \u7ea6\u675f \u6fc0\u52b1 \u5e76\u4e3e \u751f\u6001\u6587\u660e \u5236\u5ea6 \u4f53\u7cfb \u653f\u5e9c \u4f01\u4e1a \u516c\u4f17 \u5171\u6cbb \u7eff\u8272 \u4f53\u7cfb \u5168\u65b9\u4f4d \u5168 \u5730\u57df \u5168\u8fc7\u7a0b \u751f\u6001\u73af\u5883 \u4fdd\u62a4 \u5efa\u8bbe \u6fc0\u8361 \u7eff\u8272\u53d1\u5c55 \u78c5\u7934 \u529b\u91cf \u4e2d\u534e \u5927\u5730 \u5929 \u66f4 \u84dd\u5c71 \u66f4 \u7eff\u6c34 \u66f4 \u6e05 \u73af\u5883 \u66f4 \u4f18\u7f8e \u5f00\u521b \u4ebf\u4e07\u4eba\u6c11 \u5e78\u798f \u7f8e\u597d\u7684 \u672a\u6765
p5
sS'0010110000000000100001100101011011001011100001000100001010100000'
p6
V\u56fd\u52a1\u9662\u529e\u516c\u5385 \u8fdb\u4e00\u6b65 \u5b8c\u5584 \u56fd\u6709\u4f01\u4e1a \u6cd5\u4eba\u6cbb\u7406 \u7ed3\u6784 \u6307\u5bfc\u610f\u89c1 \u56fd\u52a1\u9662\u529e\u516c\u5385 \u8fdb\u4e00\u6b65 \u5b8c\u5584 \u56fd\u6709\u4f01\u4e1a \u6cd5\u4eba\u6cbb\u7406 \u7ed3\u6784 \u6307\u5bfc\u610f\u89c1 \u5404\u7701 \u81ea\u6cbb\u533a \u76f4\u8f96\u5e02 \u4eba\u6c11\u653f\u5e9c \u56fd\u52a1\u9662 \u5404\u90e8\u59d4 \u5404\u76f4\u5c5e \u673a\u6784 \u5b8c\u5584 \u56fd\u6709\u4f01\u4e1a \u6cd5\u4eba\u6cbb\u7406 \u7ed3\u6784 \u63a8\u8fdb \u4f9d\u6cd5 \u6cbb \u4f01 \u63a8\u8fdb \u56fd\u5bb6 \u6cbb\u7406 \u4f53\u7cfb \u6cbb\u7406 \u80fd\u529b \u73b0\u4ee3\u5316 \u5185\u5728 \u65b0\u4e00\u8f6e \u56fd\u6709\u4f01\u4e1a \u6539\u9769 \u91cd\u8981\u4efb\u52a1 \u56fd\u6709\u4f01\u4e1a \u521d\u6b65 \u5efa\u7acb \u73b0\u4ee3\u4f01\u4e1a \u5236\u5ea6 \u4ece\u5b9e \u8df5 \u60c5\u51b5 \u73b0\u4ee3\u4f01\u4e1a \u5236\u5ea6 \u4e0d\u5b8c\u5584 \u90e8\u5206\u4f01\u4e1a \u5c1a\u672a \u6cd5\u4eba\u6cbb\u7406 \u7ed3\u6784 \u6743\u8d23 \u6e05 \u7ea6\u675f \u7f3a\u4e4f \u5236\u8861 \u8463\u4e8b\u4f1a \u5f62\u540c\u865a\u8bbe \u672a\u80fd \u53d1\u6325 \u5e94\u6709 \u4f5c\u7528 \u4e2d\u5171\u4e2d\u592e\u56fd\u52a1\u9662 \u6df1\u5316 \u56fd\u6709\u4f01\u4e1a \u6539\u9769 \u6307\u5bfc\u610f\u89c1 \u6587\u4ef6\u7cbe\u795e \u6539\u8fdb \u56fd\u6709\u4f01\u4e1a \u6cd5\u4eba\u6cbb\u7406 \u7ed3\u6784 \u5b8c\u5584 \u56fd\u6709\u4f01\u4e1a \u73b0\u4ee3\u4f01\u4e1a \u5236\u5ea6 \u56fd\u52a1\u9662 \u540c\u610f \u73b0 \u63d0\u51fa \u610f\u89c1 \u603b\u4f53\u8981\u6c42 \u6307\u5bfc\u601d\u60f3 \u8d2f\u5f7b \u515a\u7684 \u5341\u516b\u5927 \u5341\u516b\u5c4a \u4e09\u4e2d \u56db\u4e2d \u4e94\u4e2d \u516d\u4e2d\u5168\u4f1a \u7cbe\u795e \u8d2f\u5f7b \u4e60\u8fd1\u5e73 \u603b\u4e66\u8bb0 \u7cfb\u5217 \u91cd\u8981\u8bb2\u8bdd \u7cbe\u795e \u6cbb\u56fd\u7406\u653f \u65b0\u7406\u5ff5 \u65b0 \u601d\u60f3 \u65b0\u6218\u7565 \u8ba4\u771f\u843d\u5b9e \u515a\u4e2d\u592e \u56fd\u52a1\u9662 \u51b3\u7b56 \u90e8\u7f72 \u7edf\u7b79 \u63a8\u8fdb \u4e94\u4f4d\u4e00\u4f53 \u603b\u4f53\u5e03\u5c40 \u534f\u8c03 \u63a8\u8fdb \u56db\u4e2a\u5168\u9762 \u6218\u7565\u5e03\u5c40 \u7262\u56fa \u6811\u7acb \u8d2f\u5f7b\u843d\u5b9e \u521b\u65b0 \u534f\u8c03 \u7eff\u8272 \u5f00\u653e \u5171\u4eab \u53d1\u5c55\u7406\u5ff5 \u56fd\u6709\u4f01\u4e1a \u60c5\u51b5 \u51fa\u53d1 \u5efa\u7acb\u5065\u5168 \u4ea7\u6743 \u6e05\u6670 \u6743\u8d23 \u653f\u4f01\u5206\u5f00 \u7ba1\u7406\u79d1\u5b66 \u73b0\u4ee3\u4f01\u4e1a \u5236\u5ea6 \u65b9\u5411 \u56fd\u6709\u4f01\u4e1a \u6539\u9769 \u65b0\u5f62\u52bf \u65b0 \u515a\u7684\u9886\u5bfc \u515a\u7684\u5efa\u8bbe \u5b8c\u5584 \u4f53\u5236\u673a\u5236 \u4f9d\u6cd5 \u89c4\u8303 \u6743\u8d23 \u529f\u80fd \u5206\u7c7b \u628a\u63e1 \u91cd\u70b9 \u8fdb\u4e00\u6b65 \u5065\u5168 \u5404\u53f8\u5176\u804c \u5404\u8d1f\u5176\u8d23 \u534f\u8c03 \u8fd0\u8f6c \u5236\u8861 \u56fd\u6709\u4f01\u4e1a \u6cd5\u4eba\u6cbb\u7406 \u7ed3\u6784 \u4e8c \u57fa\u672c\u539f\u5219 \u6df1\u5316\u6539\u9769 \u5c0a\u91cd \u4f01\u4e1a\u5e02\u573a \u4e3b\u4f53\u5730\u4f4d \u5e02\u573a\u7ecf\u6d4e \u89c4\u5f8b \u4f01\u4e1a\u53d1\u5c55 \u89c4\u5f8b \u89c4\u8303 \u51b3\u7b56 \u673a\u5236 \u5b8c\u5584 \u5236\u8861 \u673a \u5236\u4e3a \u91cd\u70b9 \u6fc0\u52b1\u673a\u5236 \u7ea6\u675f\u673a\u5236 \u76f8\u7ed3\u5408 \u4f53\u73b0 \u6548\u7387 \u539f\u5219 \u516c\u5e73 \u539f\u5219 \u5145\u5206\u8c03\u52a8 \u4f01\u4e1a\u5bb6 \u79ef\u6781\u6027 \u63d0\u5347 \u4f01\u4e1a\u7684 \u5e02\u573a\u5316 \u73b0\u4ee3\u5316 \u7ecf\u8425 \u6c34\u5e73 \u515a\u7684\u9886\u5bfc \u843d\u5b9e \u4ece\u4e25\u6cbb\u515a \u6218\u7565\u90e8\u7f72 \u515a\u7684\u9886\u5bfc \u5b8c\u5584 \u516c\u53f8\u6cbb\u7406 \u7edf\u4e00 \u56fd\u6709\u4f01\u4e1a \u515a\u7ec4\u7ec7 \u6cd5\u4eba\u6cbb\u7406 \u7ed3\u6784 \u4e2d \u6cd5\u5b9a \u5730\u4f4d \u53d1\u6325 \u56fd\u6709\u4f01\u4e1a \u515a\u7ec4\u7ec7 \u9886\u5bfc\u6838\u5fc3 \u653f\u6cbb \u6838\u5fc3\u4f5c\u7528 \u4fdd\u8bc1 \u515a\u7ec4\u7ec7 \u65b9\u5411 \u5927\u5c40 \u4fdd \u843d\u5b9e \u515a \u5e72\u90e8 \u539f\u5219 \u8463\u4e8b\u4f1a \u4f9d\u6cd5 \u9009\u62e9 \u7ecf\u8425\u7ba1\u7406\u8005 \u7ecf\u8425\u7ba1\u7406\u8005 \u4f9d\u6cd5 \u884c\u4f7f \u7528\u4eba\u6743 \u76f8\u7ed3\u5408 \u79ef\u6781\u63a2\u7d22 \u5f62\u5f0f \u5b8c\u5584 \u53cd\u8150\u5021\u5ec9 \u5236\u5ea6 \u4f53\u7cfb \u4f9d\u6cd5 \u6cbb \u4f01 \u4e2d\u534e\u4eba\u6c11\u5171\u548c\u56fd\u516c\u53f8\u6cd5 \u4e2d\u534e\u4eba\u6c11\u5171\u548c\u56fd \u4f01\u4e1a\u56fd\u6709\u8d44\u4ea7\u6cd5 \u6cd5\u5f8b\u6cd5\u89c4 \u516c\u53f8\u7ae0\u7a0b \u884c\u4e3a\u51c6\u5219 \u89c4\u8303 \u6743\u8d23 \u5b9a\u4f4d \u884c\u6743 \u65b9\u5f0f \u6cd5 \u6388\u6743 \u653f\u5e9c\u90e8\u95e8 \u673a\u6784 \u5e72\u9884 \u4f01\u4e1a \u751f\u4ea7\u7ecf\u8425 \u6d3b\u52a8 \u6df1\u5316\u6539\u9769 \u4f9d\u6cd5 \u6cbb \u4f01 \u6709\u673a \u7edf\u4e00 \u6743\u8d23 \u5bf9\u7b49 \u6743\u5229\u4e49\u52a1 \u8d23\u4efb \u76f8 \u7edf\u4e00\u89c4\u8303 \u6743\u529b \u8fd0\u884c \u5f3a\u5316 \u6743\u5229 \u8d23\u4efb \u5bf9\u7b49 \u6539\u9769 \u56fd\u6709\u8d44\u672c \u6388\u6743 \u7ecf\u8425 \u4f53\u5236 \u6df1\u5316 \u6743\u529b \u8fd0\u884c \u76d1\u7763\u673a\u5236 \u6539\u9769 \u6784\u5efa \u7b26\u5408\u56fd\u60c5 \u76d1\u7ba1\u4f53\u7cfb \u5b8c\u5584 \u5c65\u804c \u8bc4\u4ef7 \u8d23\u4efb\u8ffd\u7a76 \u673a\u5236 \u5931\u804c\u6e0e\u804c \u8ffd\u8d23 \u5efa\u7acb \u51b3\u7b56 \u6267\u884c \u76d1\u7763 \u73af\u8282 \u7ec8\u8eab \u8d23\u4efb\u8ffd\u7a76 \u5236\u5ea6 \u4e09 \u4e3b\u8981\u76ee\u6807 \u5e74 \u5e74\u5e95 \u524d \u56fd\u6709\u4f01\u4e1a \u516c\u53f8\u5236 \u6539\u9769 20\u5e74 \u515a\u7ec4\u7ec7 \u56fd\u6709\u4f01\u4e1a \u6cd5\u4eba\u6cbb\u7406 \u7ed3\u6784 \u4e2d \u6cd5\u5b9a \u5730\u4f4d \u7262\u56fa \u5145\u5206\u53d1\u6325 \u516c\u53f8\u7ae0\u7a0b \u4f01\u4e1a\u6cbb\u7406 \u4e2d \u57fa\u7840 \u4f5c\u7528 \u56fd\u6709\u72ec\u8d44 \u5168\u8d44 \u516c\u53f8 \u5efa\u7acb \u5916\u90e8\u8463\u4e8b \u5360\u591a\u6570 \u8463\u4e8b\u4f1a \u56fd\u6709\u63a7\u80a1 \u4f01\u4e1a \u5b9e\u884c \u5916\u90e8\u8463\u4e8b \u6d3e\u51fa \u5236\u5ea6 \u5916\u6d3e \u76d1\u4e8b\u4f1a \u6539\u9769 \u5145\u5206\u53d1\u6325 \u4f01\u4e1a\u5bb6 \u4f5c\u7528 \u9020\u5c31 \u4e00\u5927\u6279 \u653f\u6cbb \u575a\u5b9a \u5584\u4e8e \u7ecf\u8425 \u5145\u6ee1\u6d3b\u529b \u8463\u4e8b\u957f \u804c\u4e1a \u7ecf\u7406\u4eba \u57f9\u80b2 \u4e00\u652f \u5fb7\u624d\u517c\u5907 \u4e1a\u52a1 \u7cbe\u901a \u52c7\u4e8e \u62c5\u5f53 \u8463\u4e8b\u76d1\u4e8b \u961f\u4f0d \u515a\u98ce\u5ec9\u653f \u5efa\u8bbe \u4e3b\u4f53\u8d23\u4efb \u76d1\u7763\u8d23\u4efb \u5168\u9762\u843d\u5b9e \u4f01\u4e1a \u6c11\u4e3b\u76d1\u7763 \u7ba1\u7406 \u660e\u663e\u6539\u5584 \u5e02\u573a\u7ecf\u6d4e \u89c4\u5f8b \u4f01\u4e1a\u53d1\u5c55 \u89c4\u5f8b \u56fd\u6709\u4f01\u4e1a \u4f9d\u6cd5 \u81ea\u4e3b\u7ecf\u8425 \u81ea\u8d1f\u76c8\u4e8f \u62c5\u98ce\u9669 \u81ea\u6211 \u7ea6\u675f \u81ea\u6211 \u53d1\u5c55 \u5e02\u573a\u4e3b\u4f53 \u4e8c \u89c4\u8303 \u4e3b\u4f53 \u6743\u8d23 \u5065\u5168 \u516c\u53f8\u7ae0\u7a0b \u6838\u5fc3 \u4f01\u4e1a\u5236\u5ea6 \u4f53\u7cfb \u5145\u5206\u53d1\u6325 \u516c\u53f8\u7ae0\u7a0b \u4f01\u4e1a\u6cbb\u7406 \u4e2d \u57fa\u7840 \u4f5c\u7528 \u6cd5\u5f8b\u6cd5\u89c4 \u516c\u53f8\u7ae0\u7a0b \u89c4\u8303 \u5c65\u884c \u51fa\u8d44\u4eba \u804c\u8d23 \u673a\u6784 \u7b80\u79f0 \u51fa\u8d44\u4eba \u673a\u6784 \u80a1\u4e1c\u4f1a \u5305\u62ec \u80a1\u4e1c\u5927\u4f1a \u4e0b\u540c \u8463\u4e8b\u4f1a \u7ecf\u7406\u5c42 \u76d1\u4e8b\u4f1a \u515a\u7ec4\u7ec7 \u804c\u5de5 \u4ee3\u8868\u5927\u4f1a \u6743\u8d23 \u5f3a\u5316 \u6743\u5229 \u8d23\u4efb \u5bf9\u7b49 \u4fdd\u969c \u5c65\u804c \u5b8c\u5584 \u7b26\u5408\u5e02\u573a \u7ecf\u6d4e\u89c4\u5f8b \u6211\u56fd \u56fd\u60c5 \u56fd\u6709\u4f01\u4e1a \u6cd5\u4eba\u6cbb\u7406 \u7ed3\u6784 \u8fdb\u4e00\u6b65 \u63d0\u5347 \u56fd\u6709\u4f01\u4e1a \u8fd0\u884c\u6548\u7387 \u7406\u987a \u51fa\u8d44\u4eba \u804c\u8d23 \u76d1\u7ba1\u65b9\u5f0f \u80a1\u4e1c\u4f1a \u516c\u53f8 \u6743\u529b \u673a\u6784 \u80a1\u4e1c\u4f1a \u6cd5\u5f8b\u6cd5\u89c4 \u516c\u53f8\u7ae0\u7a0b \u59d4\u6d3e \u66f4\u6362 \u8463\u4e8b\u76d1\u4e8b \u4e0d\u542b \u804c\u5de5\u4ee3\u8868 \u5ba1\u6838 \u6279\u51c6 \u8463\u4e8b\u4f1a \u76d1\u4e8b\u4f1a \u5e74\u5ea6 \u5de5\u4f5c\u62a5\u544a \u6279\u51c6 \u516c\u53f8\u8d22\u52a1 \u9884\u51b3\u7b97 \u5229\u6da6\u5206\u914d \u65b9\u6848 \u65b9\u5f0f \u8463\u4e8b\u4f1a \u76d1\u4e8b\u4f1a \u8463\u4e8b\u76d1\u4e8b \u5c65\u804c \u60c5\u51b5 \u8bc4\u4ef7 \u76d1\u7763 \u51fa\u8d44\u4eba \u673a\u6784 \u672c\u7ea7 \u4eba\u6c11\u653f\u5e9c \u6388\u6743 \u56fd\u5bb6 \u51fa\u8d44\u4f01\u4e1a \u4f9d\u6cd5 \u4eab\u6709 \u80a1\u4e1c\u6743\u5229 \u56fd\u6709\u72ec\u8d44 \u516c\u53f8 \u8bbe \u80a1\u4e1c\u4f1a \u51fa\u8d44\u4eba \u673a\u6784 \u4f9d\u6cd5 \u884c\u4f7f \u80a1\u4e1c\u4f1a \u804c\u6743 \u7ba1\u8d44\u672c \u6539\u9769 \u56fd\u6709\u8d44\u672c \u6388\u6743 \u7ecf\u8425 \u4f53\u5236 \u51fa\u8d44 \u56fd\u6709\u72ec\u8d44 \u516c\u53f8 \u51fa\u8d44\u4eba \u673a\u6784 \u91cd\u70b9 \u7ba1\u597d \u56fd\u6709\u8d44\u672c \u5e03\u5c40 \u89c4\u8303 \u8d44\u672c\u8fd0\u4f5c \u5f3a\u5316 \u8d44\u672c \u7ea6\u675f \u63d0\u9ad8 \u8d44\u672c\u56de\u62a5 \u7ef4\u62a4 \u8d44\u672c \u56fd\u6709 \u5168\u8d44 \u516c\u53f8 \u56fd\u6709\u63a7\u80a1 \u4f01\u4e1a \u51fa\u8d44\u4eba \u673a\u6784 \u80a1\u6743 \u4efd\u989d \u53c2\u52a0 \u80a1\u4e1c\u4f1a\u8bae \u5ba1\u6838 \u9700 \u80a1\u4e1c \u4e8b\u9879 \u80a1\u4e1c \u534f\u5546 \u4f5c\u51fa \u51b3\u8bae \u65b9\u5f0f \u5c65\u884c\u804c\u8d23 \u6cd5\u5f8b\u6cd5\u89c4 \u516c\u53f8\u7ae0\u7a0b \u53e6\u6709 \u5916 \u5e72\u9884 \u4f01\u4e1a\u81ea\u4e3b \u7ecf\u8425\u6d3b\u52a8 \u51fa\u8d44\u4eba \u673a\u6784 \u6cd5\u5f8b\u6cd5\u89c4 \u516c\u53f8\u7ae0\u7a0b \u884c\u4f7f \u80a1\u4e1c\u6743\u5229 \u5c65\u884c \u80a1\u4e1c \u4e49\u52a1 \u76d1\u7ba1 \u5185\u5bb9 \u5e94 \u4f9d\u6cd5 \u7eb3\u5165 \u516c\u53f8\u7ae0\u7a0b \u7ba1\u8d44\u672c \u51fa\u8d44\u4eba \u673a\u6784 \u5de5\u4f5c \u804c\u80fd \u6539\u8fdb \u5de5\u4f5c\u65b9\u5f0f \u516c\u53f8\u7ae0\u7a0b \u7ba1\u7406 \u6e05\u7406 \u89c4\u7ae0 \u89c4\u8303\u6027 \u6587\u4ef6 \u7814\u7a76 \u63d0\u51fa \u51fa\u8d44\u4eba \u673a\u6784 \u5ba1\u6279\u4e8b\u9879 \u6e05\u5355 \u5efa\u7acb \u8463\u4e8b\u4f1a \u91cd\u5927\u51b3\u7b56 \u5408\u89c4\u6027 \u5ba1\u67e5 \u673a\u5236 \u5236\u5b9a \u76d1\u4e8b\u4f1a \u5efa\u8bbe \u8d23\u4efb\u8ffd\u7a76 \u5177\u4f53\u63aa\u65bd \u9002\u65f6 \u5236\u5b9a \u56fd\u6709\u8d44\u672c \u4f18\u5148\u80a1 \u56fd\u5bb6 \u7ba1\u7406\u80a1 \u7ba1\u7406\u529e\u6cd5 \u4e8c \u8463\u4e8b\u4f1a \u5efa\u8bbe \u843d\u5b9e \u8463\u4e8b\u4f1a \u804c\u6743 \u8463\u4e8b\u4f1a \u516c\u53f8 \u51b3\u7b56\u673a\u6784 \u80a1\u4e1c\u4f1a \u8d1f\u8d23 \u6267\u884c \u80a1\u4e1c\u4f1a \u6cd5\u5b9a\u7a0b\u5e8f \u516c\u53f8\u7ae0\u7a0b \u6388\u6743 \u516c\u53f8 \u91cd\u5927\u4e8b\u9879 \u63a5\u53d7 \u80a1\u4e1c\u4f1a \u76d1\u4e8b\u4f1a \u76d1\u7763 \u5c65\u884c \u51b3\u7b56 \u628a\u5173 \u5185\u90e8\u7ba1\u7406 \u9632\u8303\u98ce\u9669 \u6df1\u5316\u6539\u9769 \u804c\u8d23 \u56fd\u6709\u72ec\u8d44 \u516c\u53f8 \u4f9d\u6cd5 \u843d\u5b9e \u7ef4\u62a4 \u8463\u4e8b\u4f1a \u884c\u4f7f \u91cd\u5927\u51b3\u7b56 \u9009\u4eba \u7528\u4eba \u85aa\u916c \u5206\u914d \u6743\u5229 \u589e\u5f3a \u8463\u4e8b\u4f1a \u72ec\u7acb\u6027 \u6743\u5a01\u6027 \u843d\u5b9e \u8463\u4e8b\u4f1a \u5e74\u5ea6 \u5de5\u4f5c\u62a5\u544a \u5236\u5ea6 \u8463\u4e8b\u4f1a \u5e94 \u515a\u7ec4\u7ec7 \u6c9f\u901a \u6709\u5e8f \u56fd\u6709\u72ec\u8d44 \u516c\u53f8 \u8463\u4e8b\u4f1a \u9009\u8058 \u7ecf\u7406\u5c42 \u8bd5\u70b9 \u7ecf\u7406\u5c42 \u7ba1\u7406 \u76d1\u7763 \u4f18\u5316 \u8463\u4e8b\u4f1a \u7ed3\u6784 \u56fd\u6709\u72ec\u8d44 \u5168\u8d44 \u516c\u53f8 \u8463\u4e8b\u957f \u603b\u7ecf\u7406 \u539f\u5219\u4e0a \u5206\u8bbe \u5e94 \u5747\u4e3a \u5185\u90e8 \u6267\u884c\u8463\u4e8b \u5b9a\u671f \u8463\u4e8b\u4f1a \u62a5\u544a \u5de5\u4f5c \u56fd\u6709\u72ec\u8d44 \u516c\u53f8 \u8463\u4e8b\u957f \u4f01\u4e1a \u6cd5\u5b9a \u4ee3\u8868\u4eba \u4f01\u4e1a \u6539\u9769\u53d1\u5c55 \u8d1f \u9996\u8981 \u8d23\u4efb \u8463\u4e8b\u4f1a \u56fd\u6709\u80a1\u4e1c \u62a5\u544a \u7ecf\u8425 \u7ecf\u8425\u98ce\u9669 \u56fd\u6709\u72ec\u8d44 \u516c\u53f8 \u8463\u4e8b \u51fa\u8d44\u4eba \u673a\u6784 \u8d1f\u8d23 \u63a5\u53d7 \u51fa\u8d44\u4eba \u673a\u6784 \u6307\u5bfc \u5916\u90e8\u8463\u4e8b \u4eba\u9009 \u51fa\u8d44\u4eba \u673a\u6784 \u5546 \u6709\u5173\u90e8\u95e8 \u63d0\u540d \u6cd5\u5b9a\u7a0b\u5e8f \u4efb\u547d \u56fd\u6709 \u5168\u8d44 \u516c\u53f8 \u56fd\u6709\u63a7\u80a1 \u4f01\u4e1a\u7684 \u8463\u4e8b \u76f8\u5173 \u80a1\u4e1c \u80a1\u6743 \u4efd\u989d \u63a8\u8350 \u6d3e\u51fa \u80a1\u4e1c\u4f1a \u9009\u4e3e \u66f4\u6362 \u56fd\u6709\u80a1\u4e1c \u6d3e\u51fa \u8463\u4e8b \u7ef4\u62a4 \u56fd\u6709\u8d44\u672c \u6743\u76ca \u56fd\u6709 \u5168\u8d44 \u516c\u53f8 \u5916\u90e8\u8463\u4e8b \u4eba\u9009 \u63a7\u80a1\u80a1\u4e1c \u5546 \u80a1\u4e1c \u63a8\u8350 \u80a1\u4e1c\u4f1a \u9009\u4e3e \u66f4\u6362 \u56fd\u6709\u63a7\u80a1 \u4f01\u4e1a \u5e94\u6709 \u6bd4\u4f8b \u5916\u90e8\u8463\u4e8b \u80a1\u4e1c\u4f1a \u9009\u4e3e \u66f4\u6362 \u89c4\u8303 \u8463\u4e8b\u4f1a\u8bae\u4e8b\u89c4\u5219 \u8463\u4e8b\u4f1a \u5b9e\u884c \u96c6\u4f53 \u5ba1\u8bae \u72ec\u7acb \u8868\u51b3 \u8d1f\u8d23 \u51b3\u7b56 \u5236\u5ea6 \u5e73\u7b49 \u53d1\u8868\u610f\u89c1 \u4e00\u4eba\u4e00\u7968 \u8868\u51b3 \u5efa\u7acb \u89c4\u8303 \u900f\u660e \u91cd\u5927\u4e8b\u9879 \u4fe1\u606f\u516c\u5f00 \u5bf9\u5916 \u62ab\u9732 \u5236\u5ea6\u4fdd\u969c \u8463\u4e8b\u4f1a \u4f1a\u8bae\u8bb0\u5f55 \u63d0\u6848 \u8d44\u6599 \u5b8c\u6574\u6027 \u5efa\u7acb \u8463\u4e8b\u4f1a \u51b3\u8bae \u8ddf\u8e2a \u843d\u5b9e \u8bc4\u4f30\u5236\u5ea6 \u505a\u597d \u6cbb\u7406 \u4e3b\u4f53 \u6c9f\u901a \u8463\u4e8b\u4f1a \u8bbe\u7acb \u63d0\u540d \u59d4\u5458\u4f1a \u85aa\u916c \u8003\u6838 \u59d4\u5458\u4f1a \u5ba1\u8ba1 \u59d4\u5458\u4f1a \u59d4\u5458\u4f1a \u8463\u4e8b\u4f1a \u51b3\u7b56 \u63d0\u4f9b \u54a8\u8be2 \u85aa\u916c \u8003\u6838 \u59d4\u5458\u4f1a \u5ba1\u8ba1 \u59d4\u5458\u4f1a \u5e94 \u5916\u90e8\u8463\u4e8b \u6539\u8fdb \u8463\u4e8b\u4f1a \u8463\u4e8b \u8bc4\u4ef7 \u529e\u6cd5 \u5b8c\u5584 \u5e74\u5ea6 \u4efb\u671f \u8003\u6838\u5236\u5ea6 \u9010\u6b65\u5f62\u6210 \u7b26\u5408 \u4f01\u4e1a \u8003\u6838\u8bc4\u4ef7 \u4f53\u7cfb \u6fc0\u52b1\u673a\u5236 \u8463\u4e8b \u961f\u4f0d\u5efa\u8bbe \u8463\u4e8b \u4efb\u524d \u4efb\u671f \u57f9\u8bad \u505a\u597d \u8463\u4e8b \u6d3e\u51fa \u4efb\u671f \u7ba1\u7406\u5de5\u4f5c \u5efa\u7acb \u5b8c\u5584 \u5916\u90e8\u8463\u4e8b \u9009\u8058 \u7ba1\u7406\u5236\u5ea6 \u8d44\u683c\u8ba4\u5b9a \u8003\u8bd5 \u8003\u5bdf \u7a0b\u5e8f \u62d3\u5bbd \u5916\u90e8\u8463\u4e8b \u6765\u6e90 \u6e20\u9053 \u4e13\u804c \u5916\u90e8\u8463\u4e8b \u961f\u4f0d \u9009\u8058 \u4e00\u6279 \u73b0\u804c \u56fd\u6709\u4f01\u4e1a \u8d1f\u8d23\u4eba \u8f6c\u4efb \u4e13\u804c \u5916\u90e8\u8463\u4e8b \u5b9a\u671f\u62a5\u544a \u5916\u90e8\u8463\u4e8b \u5c65\u804c \u60c5\u51b5 \u56fd\u6709\u72ec\u8d44 \u516c\u53f8 \u5065\u5168 \u5916\u90e8\u8463\u4e8b \u53ec\u96c6\u4eba \u5236\u5ea6 \u53ec\u96c6\u4eba \u5916\u90e8\u8463\u4e8b \u5b9a\u671f \u63a8\u9009 \u5916\u90e8\u8463\u4e8b \u51fa\u8d44\u4eba \u673a\u6784 \u6c9f\u901a \u4e09 \u7ef4\u62a4 \u7ecf\u8425 \u81ea\u4e3b\u6743 \u6fc0\u53d1 \u7ecf\u7406\u5c42 \u6d3b\u529b \u7ecf\u7406\u5c42 \u516c\u53f8 \u6267\u884c\u673a\u6784 \u4f9d\u6cd5 \u8463\u4e8b\u4f1a \u8058\u4efb \u89e3\u8058 \u63a5\u53d7 \u8463\u4e8b\u4f1a \u7ba1\u7406 \u76d1\u4e8b\u4f1a \u76d1\u7763 \u603b\u7ecf\u7406 \u8463\u4e8b\u4f1a \u8d1f\u8d23 \u4f9d\u6cd5 \u884c\u4f7f \u7ba1\u7406 \u751f\u4ea7\u7ecf\u8425 \u7ec4\u7ec7 \u5b9e\u65bd \u8463\u4e8b\u4f1a \u51b3\u8bae \u804c\u6743 \u8463\u4e8b\u4f1a \u62a5\u544a \u5de5\u4f5c \u8463\u4e8b\u4f1a \u95ed\u4f1a \u671f\u95f4 \u8463\u4e8b\u957f \u62a5\u544a \u5de5\u4f5c \u5efa\u7acb \u89c4\u8303 \u7ecf\u7406\u5c42 \u6388\u6743 \u7ba1\u7406\u5236\u5ea6 \u7ecf\u7406\u5c42 \u6210\u5458 \u5b9e\u884c \u9009\u4efb \u65b9\u5f0f \u76f8\u5339\u914d \u4f01\u4e1a \u529f\u80fd \u6027\u8d28 \u76f8\u9002\u5e94 \u7ecf\u8425\u4e1a\u7ee9 \u76f8 \u6302\u94a9 \u5dee\u5f02\u5316 \u85aa\u916c \u5206\u914d\u5236\u5ea6 \u56fd\u6709\u72ec\u8d44 \u516c\u53f8\u7ecf\u7406 \u5c42 \u5b9e\u884c \u4efb\u671f\u5236 \u5951\u7ea6\u5316 \u7ba1\u7406 \u4f01\u4e1a \u4ea7\u6743\u7ed3\u6784 \u5e02\u573a\u5316 \u7a0b\u5ea6 \u60c5\u51b5 \u6709\u5e8f\u63a8\u8fdb \u804c\u4e1a \u7ecf\u7406\u4eba \u5236\u5ea6\u5efa\u8bbe \u804c\u4e1a \u7ecf\u7406\u4eba \u961f\u4f0d \u6709\u5e8f \u5b9e\u884c \u5e02\u573a\u5316 \u85aa\u916c \u63a2\u7d22 \u5b8c\u5584 \u4e2d\u957f\u671f \u6fc0\u52b1\u673a\u5236 \u7814\u7a76 \u51fa\u53f0 \u76f8\u5173 \u6307\u5bfc\u610f\u89c1 \u56fd\u6709\u72ec\u8d44 \u516c\u53f8 \u79ef\u6781\u63a2\u7d22 \u63a8\u884c \u804c\u4e1a \u7ecf\u7406\u4eba \u5236\u5ea6 \u5b9e\u884c \u5185\u90e8 \u57f9\u517b \u5916\u90e8 \u5f15\u8fdb \u76f8\u7ed3\u5408 \u7545\u901a \u4f01\u4e1a \u7ecf\u7406\u5c42 \u6210\u5458 \u804c\u4e1a \u7ecf\u7406\u4eba \u8eab\u4efd \u8f6c\u6362 \u901a\u9053 \u51fa\u8d44\u4eba \u673a\u6784 \u59d4\u6d3e \u56fd\u6709\u72ec\u8d44 \u516c\u53f8 \u603b\u4f1a\u8ba1\u5e08 \u8bd5\u70b9 \u56db \u53d1\u6325 \u76d1\u7763 \u4f5c\u7528 \u5b8c\u5584 \u95ee\u8d23\u673a\u5236 \u76d1\u4e8b\u4f1a \u516c\u53f8 \u76d1\u7763\u673a\u6784 \u6cd5\u5f8b\u6cd5\u89c4 \u516c\u53f8\u7ae0\u7a0b \u8bbe\u7acb \u8463\u4e8b\u4f1a \u7ecf\u7406\u5c42 \u6210\u5458 \u804c\u52a1\u884c\u4e3a \u76d1\u7763 \u63d0\u9ad8 \u4e13\u804c \u76d1\u4e8b \u6bd4\u4f8b \u589e\u5f3a \u76d1\u4e8b\u4f1a \u72ec\u7acb\u6027 \u6743\u5a01\u6027 \u56fd\u6709\u8d44\u4ea7 \u76d1\u7ba1\u673a\u6784 \u51fa\u8d44\u4f01\u4e1a \u4f9d\u6cd5 \u5b9e\u884c \u5916\u6d3e \u76d1\u4e8b\u4f1a \u5236\u5ea6 \u5916\u6d3e \u76d1\u4e8b\u4f1a \u653f\u5e9c \u6d3e\u51fa \u8d1f\u8d23 \u68c0\u67e5 \u4f01\u4e1a\u8d22\u52a1 \u76d1\u7763 \u4f01\u4e1a \u91cd\u5927\u51b3\u7b56 \u5173\u952e\u73af\u8282 \u8463\u4e8b\u4f1a \u7ecf\u7406\u5c42 \u5c65\u804c \u60c5\u51b5 \u4e0d\u53c2\u4e0e \u5e72\u9884 \u4f01\u4e1a \u7ecf\u8425\u7ba1\u7406 \u6d3b\u52a8 \u5065\u5168 \u804c\u5de5 \u4ee3\u8868\u5927\u4f1a \u5f62\u5f0f \u4f01\u4e1a \u6c11\u4e3b \u7ba1\u7406\u5236\u5ea6 \u652f\u6301 \u4fdd\u8bc1 \u804c\u5de5 \u4ee3\u8868\u5927\u4f1a \u4f9d\u6cd5 \u884c\u4f7f\u804c\u6743 \u804c\u5de5 \u6c11\u4e3b\u7ba1\u7406 \u76d1\u7763 \u7ef4\u62a4\u804c\u5de5 \u5408\u6cd5\u6743\u76ca \u56fd\u6709\u72ec\u8d44 \u5168\u8d44 \u516c\u53f8 \u8463\u4e8b\u4f1a \u76d1\u4e8b\u4f1a \u4e2d \u987b \u804c\u5de5\u8463\u4e8b \u804c\u5de5\u76d1\u4e8b \u5efa\u7acb \u56fd\u6709\u4f01\u4e1a \u91cd\u5927\u4e8b\u9879 \u4fe1\u606f\u516c\u5f00 \u5bf9\u5916 \u62ab\u9732 \u5236\u5ea6 \u5f3a\u5316 \u8d23\u4efb\u610f\u8bc6 \u6743\u8d23 \u8fb9\u754c \u5efa\u7acb \u6cbb\u7406 \u4e3b\u4f53 \u5c65\u804c \u76f8\u9002\u5e94 \u8d23\u4efb\u8ffd\u7a76 \u5236\u5ea6 \u8463\u4e8b\u76d1\u4e8b \u7ecf\u7406\u5c42 \u6210\u5458 \u9075\u5b88 \u6cd5\u5f8b\u6cd5\u89c4 \u516c\u53f8\u7ae0\u7a0b \u516c\u53f8 \u8d1f\u6709 \u5fe0\u5b9e \u4e49\u52a1 \u52e4\u52c9 \u4e49\u52a1 \u4fe1\u7528\u8bb0\u5f55 \u7eb3\u5165 \u5168\u56fd \u4fe1\u7528\u4fe1\u606f \u5171\u4eab\u5e73\u53f0 \u8fdd\u7ea6 \u5931\u4fe1 \u6309\u89c4\u5b9a \u4fe1\u7528\u4e2d\u56fd \u7f51\u7ad9 \u516c\u5f00 \u8463\u4e8b \u51fa\u5e2d \u8463\u4e8b\u4f1a \u4f1a\u8bae \u8463\u4e8b\u4f1a \u51b3\u8bae \u627f\u62c5\u8d23\u4efb \u8463\u4e8b\u4f1a \u51b3\u8bae \u8fdd\u53cd \u6cd5\u5f8b\u6cd5\u89c4 \u516c\u53f8\u7ae0\u7a0b \u80a1\u4e1c\u4f1a \u51b3\u8bae \u81f4\u4f7f \u516c\u53f8 \u906d\u53d7 \u4e25\u91cd\u635f\u5931 \u5e94 \u4f9d\u6cd5\u8ffd\u7a76 \u8463\u4e8b \u8d23\u4efb \u7ecf\u7406\u5c42 \u6210\u5458 \u8fdd\u53cd \u6cd5\u5f8b\u6cd5\u89c4 \u516c\u53f8\u7ae0\u7a0b \u81f4\u4f7f \u516c\u53f8 \u906d\u53d7 \u635f\u5931 \u5e94 \u4f9d\u6cd5\u8ffd\u7a76 \u7ecf\u7406\u5c42 \u6210\u5458 \u8d23\u4efb \u6267\u884c\u8463\u4e8b \u7ecf\u7406\u5c42 \u6210\u5458 \u672a \u8463\u4e8b\u4f1a \u56fd\u6709\u80a1\u4e1c \u62a5\u544a \u7ecf\u8425 \u7ecf\u8425\u98ce\u9669 \u5e94 \u4f9d\u6cd5\u8ffd\u7a76 \u76f8\u5173 \u4eba\u5458 \u8d23\u4efb \u4f01\u4e1a \u515a\u7ec4\u7ec7 \u6210\u5458 \u5c65\u804c \u8fc7\u7a0b\u4e2d \u5931\u8bef \u5931\u804c\u6e0e\u804c \u5e94 \u515a\u7ec4\u7ec7 \u6709\u5173\u89c4\u5b9a \u8ffd\u7a76\u8d23\u4efb \u4e09\u4e2a \u533a\u5206 \u5f00\u6765 \u5efa\u7acb \u6539\u9769 \u5bb9\u9519 \u7ea0\u9519 \u673a\u5236 \u6fc0\u52b1 \u4f01\u4e1a\u9886\u5bfc \u4eba\u5458 \u5e72\u4e8b\u521b\u4e1a \u4e94 \u515a\u7684\u9886\u5bfc \u53d1\u6325 \u653f\u6cbb \u4f18\u52bf \u515a\u7684\u9886\u5bfc \u515a\u7684\u5efa\u8bbe \u56fd\u6709\u4f01\u4e1a \u72ec\u7279 \u4f18\u52bf \u515a\u7ec4\u7ec7 \u56fd\u6709\u4f01\u4e1a \u6cd5\u4eba\u6cbb\u7406 \u7ed3\u6784 \u4e2d \u6cd5\u5b9a \u5730\u4f4d \u515a\u5efa\u5de5\u4f5c \u603b\u4f53\u8981\u6c42 \u7eb3\u5165 \u56fd\u6709\u4f01\u4e1a \u7ae0\u7a0b \u515a\u7ec4\u7ec7 \u4f01\u4e1a \u51b3\u7b56 \u6267\u884c \u76d1\u7763 \u73af\u8282 \u6743\u8d23 \u5de5\u4f5c\u65b9\u5f0f \u515a\u7ec4\u7ec7 \u4f01\u4e1a\u6cd5\u4eba \u6cbb\u7406\u7ed3\u6784 \u6709\u673a \u7ec4\u6210\u90e8\u5206 \u5145\u5206\u53d1\u6325 \u515a\u7ec4\u7ec7 \u9886\u5bfc\u6838\u5fc3 \u653f\u6cbb \u6838\u5fc3\u4f5c\u7528 \u9886\u5bfc \u4f01\u4e1a \u601d\u60f3\u653f\u6cbb \u5de5\u4f5c \u652f\u6301 \u8463\u4e8b\u4f1a \u76d1\u4e8b\u4f1a \u7ecf\u7406\u5c42 \u4f9d\u6cd5 \u5c65\u884c\u804c\u8d23 \u4fdd\u8bc1 \u515a\u548c\u56fd\u5bb6 \u65b9\u9488\u653f\u7b56 \u8d2f\u5f7b\u6267\u884c \u5145\u5206\u53d1\u6325 \u7eaa\u68c0\u76d1\u5bdf \u5de1\u89c6 \u5ba1\u8ba1 \u76d1\u7763 \u4f5c\u7528 \u56fd\u6709\u4f01\u4e1a \u8463\u4e8b\u76d1\u4e8b \u7ecf\u7406\u5c42 \u4e2d \u515a\u5458 \u5b9a\u671f \u515a\u7ec4 \u515a\u59d4 \u62a5\u544a \u5c65\u804c \u5ec9\u6d01\u81ea\u5f8b \u60c5\u51b5 \u4e0a\u7ea7 \u515a\u7ec4\u7ec7 \u56fd\u6709\u4f01\u4e1a \u7eaa\u68c0\u7ec4\u7ec4\u957f \u7eaa\u59d4\u4e66\u8bb0 \u5b9e\u884c \u59d4\u6d3e \u5236\u5ea6 \u5b9a\u671f \u8f6e\u5c97 \u5236\u5ea6 \u7eaa\u68c0\u7ec4\u7ec4\u957f \u7eaa\u59d4\u4e66\u8bb0 \u575a\u6301\u539f\u5219 \u5f3a\u5316 \u76d1\u7763 \u7eaa\u68c0\u7ec4\u7ec4\u957f \u7eaa\u59d4\u4e66\u8bb0 \u5217\u5e2d \u8463\u4e8b\u4f1a \u8463\u4e8b\u4f1a \u59d4\u5458\u4f1a \u4f1a\u8bae \u79ef\u6781\u63a2\u7d22 \u515a \u5e72\u90e8 \u539f\u5219 \u8463\u4e8b\u4f1a \u9009\u8058 \u7ecf\u8425\u7ba1\u7406 \u4eba\u5458 \u6709\u673a\u7ed3\u5408 \u9014\u5f84 \u65b9\u6cd5 \u5b8c\u5584 \u53cc\u5411 \u4ea4\u53c9 \u4efb\u804c \u9886\u5bfc \u4f53\u5236 \u7b26\u5408\u6761\u4ef6 \u56fd\u6709\u4f01\u4e1a \u515a\u7ec4 \u515a\u59d4 \u9886\u5bfc \u73ed\u5b50\u6210\u5458 \u6cd5\u5b9a\u7a0b\u5e8f \u8463\u4e8b\u4f1a \u76d1\u4e8b\u4f1a \u7ecf\u7406\u5c42 \u8463\u4e8b\u4f1a \u76d1\u4e8b\u4f1a \u7ecf\u7406\u5c42 \u6210\u5458 \u4e2d \u7b26\u5408\u6761\u4ef6 \u515a\u5458 \u6709\u5173\u89c4\u5b9a \u7a0b\u5e8f \u515a\u7ec4 \u515a\u59d4 \u515a\u7ec4 \u515a\u59d4\u4e66\u8bb0 \u8463\u4e8b\u957f \u4e00\u4eba \u62c5\u4efb \u63a8\u8fdb \u4e2d\u592e\u4f01\u4e1a \u515a\u7ec4 \u515a\u59d4 \u4e13\u804c \u526f\u4e66\u8bb0 \u8463\u4e8b\u4f1a \u8463\u4e8b\u4f1a \u9009\u8058 \u7ecf\u7406\u5c42 \u6210\u5458 \u5de5\u4f5c\u4e2d \u4e0a\u7ea7 \u515a\u7ec4\u7ec7 \u7ec4\u7ec7\u90e8\u95e8 \u56fd\u6709\u8d44\u4ea7 \u76d1\u7ba1\u673a\u6784 \u515a\u59d4 \u53d1\u6325 \u6807\u51c6\u89c4\u8303 \u7a0b\u5e8f \u53c2\u4e0e \u8003\u5bdf \u63a8\u8350 \u4eba\u9009 \u4f5c\u7528 \u79ef\u6781\u63a2\u7d22 \u8463\u4e8b\u4f1a \u5dee\u989d \u65b9\u5f0f \u9009\u8058 \u7ecf\u7406\u5c42 \u6210\u5458 \u4e09 \u505a\u597d \u7ec4\u7ec7 \u5b9e\u65bd \u603b\u7ed3\u7ecf\u9a8c \u5206\u5c42 \u6709\u5e8f \u5b9e\u65bd \u56fd\u6709\u4f01\u4e1a \u5efa\u8bbe \u89c4\u8303 \u8463\u4e8b\u4f1a \u8bd5\u70b9 \u57fa\u7840 \u603b\u7ed3\u7ecf\u9a8c \u5b8c\u5584 \u5236\u5ea6 \u56fd\u52a1\u9662\u56fd\u8d44\u59d4 \u76d1\u7ba1 \u4e2d\u592e\u4f01\u4e1a \u4f9d\u6cd5 \u6539 \u5236\u4e3a \u56fd\u6709\u72ec\u8d44 \u516c\u53f8 \u56fd\u6709\u63a7\u80a1 \u516c\u53f8 \u5efa\u7acb \u89c4\u8303 \u8463\u4e8b\u4f1a \u56fd\u6709\u8d44\u672c \u6295\u8d44 \u8fd0\u8425 \u516c\u53f8\u6cd5\u4eba\u6cbb\u7406\u7ed3\u6784 \u4f01 \u7b56 \u516c\u53f8\u7ae0\u7a0b \u4e2d \u4e88\u4ee5 \u7ec6\u5316 \u4e2d\u592e\u4f01\u4e1a \u5730\u65b9 \u56fd\u6709\u4f01\u4e1a \u51fa\u8d44\u4eba \u673a\u6784 \u8d1f\u8d23 \u5b8c\u5584 \u56fd\u6709\u4f01\u4e1a \u6cd5\u4eba\u6cbb\u7406 \u7ed3\u6784 \u4e8c \u7cbe\u5fc3 \u89c4\u8303 \u8fd0\u4f5c \u505a\u597d \u76f8\u4e92 \u8854\u63a5 \u56fd\u6709\u4f01\u4e1a \u5b8c\u5584 \u6cd5\u4eba\u6cbb\u7406 \u7ed3\u6784 \u63a8\u8fdb \u4f9d\u6cd5 \u6cbb \u4f01 \u5b8c\u5584 \u516c\u53f8\u7ae0\u7a0b \u5185\u90e8 \u7ec4\u7ec7\u673a\u6784 \u6743\u5229\u4e49\u52a1 \u8d23\u4efb \u5404\u8d1f\u5176\u8d23 \u89c4\u8303 \u8fd0\u4f5c \u76f8\u4e92 \u8854\u63a5 \u5236\u8861 \u56fd\u52a1\u9662\u56fd\u8d44\u59d4 \u4f1a\u540c \u6709\u5173\u90e8\u95e8 \u5355\u4f4d \u6293\u7d27 \u5236\u5b9a \u56fd\u6709\u4f01\u4e1a \u516c\u53f8\u7ae0\u7a0b \u5ba1\u6838 \u6279\u51c6 \u7ba1\u7406\u529e\u6cd5 \u91d1\u878d \u6587\u5316 \u56fd\u6709\u4f01\u4e1a \u6539\u9769 \u4e2d\u592e \u53e6\u6709 \u4f9d\u5176 \u6267\u884c \u56fd\u52a1\u9662\u529e\u516c\u5385 \u5e74 4\u6708 4\u65e5
p7
sS'0010111000000110100011011001100111011010101011100000100011010001'
p8
V\u4e2d\u5171\u4e2d\u592e\u529e\u516c\u5385 \u5370\u53d1 \u4e2d\u56fd\u8bb0\u534f \u6df1\u5316\u6539\u9769 \u65b9\u6848 \u65b0\u534e\u793e \u5317\u4eac 4\u6708 \u65e5\u7535 \u8fd1\u65e5 \u4e2d\u5171\u4e2d\u592e\u529e\u516c\u5385 \u5370\u53d1 \u4e2d\u56fd\u8bb0\u534f \u6df1\u5316\u6539\u9769 \u65b9\u6848 \u65b9\u6848 \u4e2d\u56fd\u8bb0\u534f \u515a\u548c\u653f\u5e9c \u65b0\u95fb\u754c \u6865\u6881 \u7ebd\u5e26 \u7e41\u8363 \u53d1\u5c55 \u515a\u7684 \u65b0\u95fb\u4e8b\u4e1a \u91cd\u8981\u529b\u91cf \u515a\u4e2d\u592e \u9ad8\u5ea6\u91cd\u89c6 \u505a\u597d \u65b0\u95fb \u8206\u8bba \u5de5\u4f5c \u9ad8\u5ea6\u91cd\u89c6 \u65b0\u95fb \u8206\u8bba \u5de5\u4f5c \u961f\u4f0d\u5efa\u8bbe \u515a\u7684 \u5341\u516b\u5927 \u4e60\u8fd1\u5e73 \u540c\u5fd7 \u6838\u5fc3 \u515a\u4e2d\u592e \u505a\u597d \u65b0\u5f62\u52bf\u4e0b \u515a\u7684 \u65b0\u95fb \u8206\u8bba \u5de5\u4f5c \u63a8\u8fdb \u4e2d\u56fd\u8bb0\u534f \u6539\u9769 \u4f5c\u51fa \u90e8\u7f72 \u4e2d\u592e\u4e66\u8bb0\u5904 \u529e\u516c\u4f1a\u8bae \u5ba1\u8bae \u65b9\u6848 \u65b9\u6848 \u4e2d\u56fd\u8bb0\u534f \u6539\u9769 \u6307\u5bfc\u601d\u60f3 \u57fa\u672c\u539f\u5219 \u4e3b\u8981\u76ee\u6807 \u65b9\u6848 \u63d0\u51fa \u9ad8\u4e3e \u4e2d\u56fd\u7279\u8272\u793e\u4f1a\u4e3b\u4e49 \u4f1f\u5927\u65d7\u5e1c \u8d2f\u5f7b \u515a\u7684 \u5341\u516b\u5927 \u5341\u516b\u5c4a \u4e09\u4e2d \u56db\u4e2d \u4e94\u4e2d \u516d\u4e2d\u5168\u4f1a \u7cbe\u795e \u9a6c\u514b\u601d\u5217\u5b81\u4e3b\u4e49 \u6bdb\u6cfd\u4e1c\u601d\u60f3 \u9093\u5c0f\u5e73\u7406\u8bba \u4e09\u4e2a\u4ee3\u8868 \u601d\u60f3 \u79d1\u5b66\u53d1\u5c55\u89c2 \u6307\u5bfc \u8d2f\u5f7b \u4e60\u8fd1\u5e73 \u603b\u4e66\u8bb0 \u7cfb\u5217 \u91cd\u8981\u8bb2\u8bdd \u7cbe\u795e \u6cbb\u56fd\u7406\u653f \u65b0\u7406\u5ff5 \u65b0 \u601d\u60f3 \u65b0\u6218\u7565 \u7d27\u7d27\u56f4\u7ed5 \u4e94\u4f4d\u4e00\u4f53 \u603b\u4f53\u5e03\u5c40 \u56db\u4e2a\u5168\u9762 \u6218\u7565\u5e03\u5c40 \u6539\u9769\u65b9\u5411 \u91cd\u70b9 \u7262\u56fa \u6811\u7acb \u653f\u6cbb\u610f\u8bc6 \u5927\u5c40\u610f\u8bc6 \u6838\u5fc3 \u610f\u8bc6 \u770b\u9f50 \u610f\u8bc6 \u843d\u5b9e \u65b0 \u53d1\u5c55\u7406\u5ff5 \u575a\u5b9a \u6587\u5316\u81ea\u4fe1 \u6587\u5316\u81ea\u89c9 \u589e\u5f3a \u653f\u6cbb\u6027 \u5148\u8fdb\u6027 \u7fa4\u4f17\u6027 \u76ee\u6807 \u8d70 \u4e2d\u56fd\u7279\u8272\u793e\u4f1a\u4e3b\u4e49 \u7fa4\u56e2 \u53d1\u5c55 \u9053\u8def \u603b\u8981 \u6c42 \u6539\u9769 \u8def\u5f84 \u515a\u7684\u9886\u5bfc \u56e2\u7ed3 \u670d\u52a1 \u65b0\u95fb \u5de5\u4f5c\u8005 \u4f9d\u6cd5 \u7ae0\u7a0b \u5de5\u4f5c \u6709\u673a \u7edf\u4e00 \u653f\u6cbb \u5f15\u9886 \u95ee\u9898\u5bfc\u5411 \u9762\u5411\u57fa\u5c42 \u5f3a\u5316 \u534f\u8c03 \u63a8\u8fdb \u4ece\u6839\u672c\u4e0a \u89e3\u51b3 \u673a\u5173\u5316 \u884c\u653f\u5316 \u8131\u79bb\u7fa4\u4f17 \u5145\u5206\u53d1\u6325 \u56e2\u7ed3 \u5f15\u9886 \u8054\u7edc \u534f\u8c03 \u670d\u52a1 \u7ba1\u7406 \u81ea\u5f8b \u7ef4\u6743 \u804c\u80fd\u4f5c\u7528 \u4e2d\u56fd\u8bb0\u534f \u5efa\u8bbe \u5f3a\u5927 \u5438\u5f15\u529b \u51dd\u805a\u529b \u4eba\u6c11\u56e2\u4f53 \u7115\u53d1 \u65b0\u7684 \u751f\u673a \u6d3b\u529b \u63d0\u9ad8 \u515a\u7684 \u65b0\u95fb \u8206\u8bba \u4f20\u64ad \u529b \u5f15\u5bfc \u529b \u5f71\u54cd\u529b \u516c\u4fe1\u529b \u65b9\u6848 \u51e0\u4e2a \u63d0\u51fa \u4e2d\u56fd\u8bb0\u534f \u6539\u9769\u63aa\u65bd \u7b2c\u4e00 \u6539\u8fdb \u4e2d\u56fd\u8bb0\u534f \u9886\u5bfc \u673a\u6784 \u4eba\u5458\u6784\u6210 \u8fd0\u884c\u673a\u5236 \u589e\u5f3a \u4ee3\u8868\u6027 \u5e7f\u6cdb\u6027 \u8c03\u6574 \u4e2d\u56fd\u8bb0\u534f \u5168\u56fd \u7406\u4e8b\u4f1a \u5e38\u52a1 \u7406\u4e8b\u4f1a \u4e3b\u5e2d\u56e2 \u4eba\u5458 \u7ed3\u6784 \u63d0\u9ad8 \u4e00\u7ebf \u5c97\u4f4d \u65b0\u5174\u5a92\u4f53 \u4ee3\u8868 \u6bd4\u4f8b \u5168\u56fd \u7406\u4e8b\u4f1a \u7406\u4e8b \u53c2\u4e0e \u4e2d\u56fd\u8bb0\u534f \u8bae\u4e8b \u51b3\u7b56 \u6e20\u9053 \u5efa\u7acb \u5168\u56fd \u7406\u4e8b\u4f1a \u7406\u4e8b \u53d1\u8a00 \u5236\u5ea6 \u62d3\u5bbd \u7406\u4e8b \u610f\u89c1 \u8868\u8fbe \u6e20\u9053 \u5efa\u7acb \u5e38\u52a1\u7406\u4e8b \u91cd\u70b9 \u53d1\u8a00 \u5236\u5ea6 \u5efa\u7acb \u4e2d\u56fd\u8bb0\u534f \u7406\u4e8b \u4e66\u9762 \u6c47\u62a5\u5de5\u4f5c \u542c\u53d6\u610f\u89c1 \u5efa\u8bae \u5236\u5ea6 \u8bbe\u7acb \u7406\u4e8b \u89c1\u9762 \u65e5 \u5236\u5ea6 \u642d\u5efa \u4e2d\u56fd\u8bb0\u534f \u7406\u4e8b \u65b0\u95fb \u5de5\u4f5c\u8005 \u9762\u5bf9\u9762 \u4ea4\u6d41\u5e73\u53f0 \u6709\u5e8f \u627f\u63a5 \u653f\u5e9c \u8f6c\u79fb \u804c\u80fd \u653f\u5e9c \u804c\u80fd\u8f6c\u53d8 \u7b80\u653f\u653e\u6743 \u9f13\u52b1 \u8bb0\u534f \u7ec4\u7ec7 \u53d1\u6325 \u4e13\u957f \u627f\u62c5 \u9002\u5408 \u8bb0\u534f \u7ec4\u7ec7 \u627f\u62c5 \u793e\u4f1a\u6cbb\u7406 \u670d\u52a1 \u804c\u80fd \u53c2\u4e0e \u5236\u5b9a \u76f8\u5173 \u7acb\u6cd5 \u653f\u5e9c\u89c4\u5212 \u516c\u5171\u653f\u7b56 \u4e8b\u52a1 \u5efa\u7acb \u9a6c\u514b\u601d\u4e3b\u4e49 \u65b0\u95fb\u89c2 \u6559\u80b2\u57f9\u8bad \u957f\u6548 \u5236\u5ea6 \u56e2\u7ed3 \u5f15\u9886 \u65b0\u95fb \u5de5\u4f5c\u8005 \u59cb\u7ec8 \u5fe0\u8bda \u515a\u7684 \u65b0\u95fb\u4e8b\u4e1a \u62d3\u5c55 \u6559\u80b2\u57f9\u8bad \u6df1\u5ea6\u5e7f\u5ea6 \u5de5\u4f5c \u8986\u76d6\u9762 \u52a0\u5927 \u5177\u5907 \u57f9\u8bad \u6761\u4ef6 \u884c\u4e1a \u7c7b \u5a92\u4f53 \u9769\u547d\u8001\u533a \u6c11\u65cf\u5730\u533a \u8fb9\u7586\u5730\u533a \u8d2b\u56f0\u5730\u533a \u57f9\u8bad \u652f\u6301\u529b\u5ea6 \u9a6c\u514b\u601d\u4e3b\u4e49 \u65b0\u95fb\u89c2 \u6559\u80b2\u57f9\u8bad \u5185\u5bb9 \u793e\u4f1a\u4e3b\u4e49\u6838\u5fc3\u4ef7\u503c\u89c2 \u5185\u5bb9 \u521b\u65b0 \u9a6c\u514b\u601d\u4e3b\u4e49 \u65b0\u95fb\u89c2 \u6559\u80b2\u57f9\u8bad \u5e73\u53f0 \u5f62\u5f0f \u6559\u80b2\u57f9\u8bad \u5ef6\u4f38 \u9ad8\u7b49 \u65b0\u95fb \u9662\u6821 \u65b0\u95fb \u5de5\u4f5c\u8005 \u65b0\u95fb \u9662\u6821 \u5e08\u751f \u63d0\u9ad8 \u8df5\u884c \u9a6c\u514b\u601d\u4e3b\u4e49 \u65b0\u95fb\u89c2 \u81ea\u89c9\u6027 \u575a\u5b9a\u6027 \u6539\u8fdb \u8bb0\u8005 \u5927\u8bb2\u5802 \u6d3b\u52a8 \u65b9\u5f0f\u6539\u53d8 \u8bf7\u8fdb\u6765 \u505a\u6cd5 \u8bb0\u8005 \u5927\u8bb2\u5802 \u529e \u8fdb\u57fa\u5c42 \u5a92\u4f53 \u9662\u6821 \u90e8\u59d4 \u63d0\u5347 \u5438\u5f15\u529b \u53c2\u4e0e\u5ea6 \u6253\u9020 \u8bb0\u8005 \u8bb2 \u597d\u6545\u4e8b \u6f14\u8bb2\u6d3b\u52a8 \u4e2d\u56fd \u65b0\u95fb\u5956 \u957f\u6c5f\u97ec\u594b\u5956 \u83b7\u5f97\u8005 \u6f14\u8bb2\u6d3b\u52a8 \u4e24\u4e2a \u54c1\u724c \u5efa\u7acb \u4f18\u79c0 \u9009\u624b \u8d44\u6599\u5e93 \u7ec4\u7ec7 \u73b0\u8eab\u8bf4\u6cd5 \u4e92\u52a8 \u4ea4\u6d41 \u6d3b\u52a8 \u6d3b\u52a8 \u5236\u5ea6\u5316 \u89c4\u8303\u5316 \u5efa\u8bbe \u65b0\u95fb \u5de5\u4f5c\u8005 \u81ea\u6211\u6559\u80b2 \u81ea\u6211 \u63d0\u5347 \u65b0\u54c1\u724c \u6df1\u5316 \u62d3\u5c55 \u65b0\u95fb\u754c \u8d70\u8f6c\u6539 \u6d3b\u52a8 \u53c2\u52a0 \u5bf9\u8c61 \u4e2d\u592e \u65b0\u95fb \u5355\u4f4d \u6269\u5c55 \u884c\u4e1a \u7c7b \u5a92\u4f53 \u6d3b\u52a8 \u8986\u76d6\u9762 \u7ec4\u7ec7 \u7f16\u8f91 \u8bb0\u8005 \u9769\u547d\u8001\u533a \u57fa\u5c42\u4e00\u7ebf \u8c03\u7814 \u91c7\u8bbf \u589e\u8fdb \u65b0\u95fb \u961f\u4f0d \u515a \u60c5 \u56fd\u60c5 \u8ba4\u77e5 \u4eba\u6c11\u7fa4\u4f17 \u8840\u8089 \u7b2c\u4e09 \u5f3a\u5316 \u884c\u4e1a\u81ea\u5f8b \u804c\u80fd \u65b0\u95fb\u884c\u4e1a \u5065\u5eb7 \u6709\u5e8f \u53d1\u5c55 \u65b0\u95fb \u9053\u5fb7 \u59d4\u5458\u4f1a \u5de5\u4f5c \u5236\u5ea6\u5316 \u5efa\u8bbe \u65b0\u95fb \u9053\u5fb7 \u59d4\u5458\u4f1a \u5de5\u4f5c \u89c4\u8303\u5316 \u79d1\u5b66\u5316 \u63a8\u52a8 \u65b0\u95fb \u8bc4\u8bae \u8bae\u9898 \u5177\u4f53\u5316 \u52a0\u5927 \u865a\u5047\u65b0\u95fb \u7f51\u7edc\u65b0\u95fb \u8bc4\u8bae \u529b\u5ea6 \u5145\u5206\u53d1\u6325 \u793e\u4f1a\u5404\u754c \u6574\u6cbb \u65b0\u95fb\u754c \u65b9 \u9762\u7684 \u4f5c\u7528 \u63a8\u8fdb \u5a92\u4f53 \u793e\u4f1a\u8d23\u4efb \u62a5\u544a \u5236\u5ea6\u89c4\u8303 \u5a92\u4f53 \u793e\u4f1a\u8d23\u4efb \u62a5\u544a \u4e3b\u8981\u5185\u5bb9 \u53d1\u5e03 \u65b9\u5f0f \u8bc4\u4ef7 \u529e\u6cd5 \u5021\u5bfc \u5a92\u4f53 \u81ea\u89c9 \u63a5\u53d7 \u793e\u4f1a\u76d1\u7763 \u5a92\u4f53 \u793e\u4f1a\u8d23\u4efb \u62a5\u544a \u5236\u5ea6 \u5b9e\u65bd \u63a8\u52a8 \u65b0\u95fb \u5355\u4f4d \u4e3e\u529e \u65b0\u5174\u5a92\u4f53 \u5b9a\u671f\u62a5\u544a \u5c65\u884c \u793e\u4f1a\u8d23\u4efb \u60c5\u51b5 \u5efa\u7acb \u4e3e\u62a5 \u67e5\u5904 \u5206\u7c7b \u5de5\u4f5c \u673a\u5236 \u53d1\u6325 \u4e2d\u56fd\u8bb0\u534f \u65b0\u95fb \u9053\u5fb7 \u59d4\u5458\u4f1a \u7ec4\u7ec7\u534f\u8c03 \u4f5c\u7528 \u505a\u597d \u65b0\u95fb\u754c \u4e3e\u62a5 \u53d7\u7406 \u6838\u67e5 \u5de5\u4f5c \u7b2c\u56db \u4e0b\u79fb \u5de5\u4f5c \u91cd\u5fc3 \u4e00\u7ebf \u65b0\u95fb \u5de5\u4f5c\u8005 \u63d0\u4f9b \u670d\u52a1 \u6539\u8fdb \u65b0\u95fb \u7ef4\u6743 \u5de5\u4f5c \u5927\u529b\u652f\u6301 \u65b0\u95fb \u5de5\u4f5c\u8005 \u4e3a\u515a \u56fd\u5bb6 \u53d1\u58f0 \u5173\u5fc3 \u5173\u7231 \u4e00\u7ebf \u65b0\u95fb \u5de5\u4f5c\u8005 \u843d\u5b9e \u65b0\u95fb \u5de5\u4f5c\u8005 \u63f4\u52a9 \u9879\u76ee \u63a2\u7d22 \u65b0\u95fb\u5a92\u4f53 \u7248\u6743 \u6743\u76ca \u7ef4\u62a4 \u9014\u5f84 \u624b\u6bb5 \u6539\u9769 \u4e2d\u56fd \u65b0\u95fb\u5956 \u957f\u6c5f\u97ec\u594b\u5956 \u8bc4\u9009\u5de5\u4f5c \u673a\u5236 \u786e\u4fdd \u5bfc\u5411 \u6b63\u786e \u7533\u62a5 \u6e20\u9053 \u63d0\u9ad8 \u8bc4\u5ba1 \u5f00\u653e\u5ea6 \u89c4\u8303 \u8bc4\u5956 \u6807\u51c6 \u8bc4\u5956 \u65b9\u5f0f \u63a2\u7d22 \u65b0\u5174\u5a92\u4f53 \u4f5c\u54c1 \u7eb3\u5165 \u8bc4\u5956 \u52a0\u5927 \u4f18\u79c0 \u65b0\u95fb \u4f5c\u54c1 \u4f18\u79c0 \u65b0\u95fb \u5de5\u4f5c\u8005 \u5ba3 \u4ecb \u529b\u5ea6 \u589e\u5f3a \u8bc4\u5956 \u5de5\u4f5c \u6743\u5a01\u6027 \u516c\u4fe1\u529b \u793a\u8303 \u5f15\u9886 \u4f5c\u7528 \u5206\u7c7b \u63a8\u8fdb \u4e2d\u56fd\u8bb0\u534f \u6240\u5c5e \u4e8b\u4e1a\u5355\u4f4d \u6539\u9769 \u6df1\u5316 \u5185\u90e8 \u4eba\u4e8b \u6536\u5165\u5206\u914d \u793e\u4f1a\u4fdd\u969c \u7ecf\u8d39 \u4fdd\u969c \u5236\u5ea6\u6539\u9769 \u589e\u5f3a \u670d\u52a1\u80fd\u529b \u63d0\u5347 \u53d1\u5c55 \u6d3b\u529b \u7b2c\u4e94 \u5efa\u7acb\u8054\u7cfb \u65b0\u5174\u5a92\u4f53 \u5de5\u4f5c \u673a\u6784 \u8fd0\u884c\u673a\u5236 \u670d\u52a1 \u8986\u76d6\u9762 \u4fee\u6539 \u4e2d\u534e\u5168\u56fd\u65b0\u95fb\u5de5\u4f5c\u8005\u534f\u4f1a \u7ae0\u7a0b \u4e2d\u56fd\u65b0\u95fb \u5de5\u4f5c\u8005 \u804c\u4e1a\u9053\u5fb7 \u51c6\u5219 \u65b0\u589e \u4e2d\u56fd\u8bb0\u534f \u5f15\u9886 \u65b0\u5174\u5a92\u4f53 \u804c\u80fd \u5185\u5bb9 \u786e\u7acb \u4e2d\u56fd\u8bb0\u534f \u5f15\u9886 \u65b0\u5174\u5a92\u4f53 \u5de5\u4f5c \u673a\u6784 \u63a2\u7d22 \u56e2\u7ed3 \u670d\u52a1 \u65b0\u5174\u5a92\u4f53 \u7ec4\u7ec7\u5f62\u5f0f \u65b0\u5174\u5a92\u4f53 \u4ece\u4e1a\u4eba\u5458 \u7eb3\u5165 \u4e2d\u56fd\u8bb0\u534f \u670d\u52a1\u8303\u56f4 \u5efa\u7acb \u4e2d\u56fd\u8bb0\u534f \u65b0\u5174\u5a92\u4f53 \u5e73\u53f0 \u534f\u8c03\u673a\u5236 \u6574\u5408 \u4e2d\u56fd\u8bb0\u534f \u65b0\u5174\u5a92\u4f53 \u5de5\u4f5c \u5e73\u53f0 \u5efa\u7acb \u65e5\u5e38 \u6c9f\u901a \u534f\u8c03\u673a\u5236 \u52a0\u5927 \u4fe1\u606f \u8d44\u6e90\u5171\u4eab \u529b\u5ea6 \u6539\u7248 \u5347\u7ea7 \u4e2d\u56fd\u8bb0\u534f \u7f51 \u5f00\u53d1\u5efa\u8bbe \u5728\u7ebf \u57f9\u8bad \u7f51\u4e0a\u4e3e\u62a5 \u5e73\u53f0\u5efa\u8bbe \u5b8c\u5584 \u4e2d\u56fd\u8bb0\u534f \u5fae\u4fe1 \u516c\u4f17\u53f7 \u5fae\u535a \u5e73\u53f0 \u7b2c\u516d \u6539\u8fdb \u5883\u5916 \u65b0\u95fb \u4ea4\u6d41 \u5de5\u4f5c \u673a\u5236 \u5efa\u7acb\u5065\u5168 \u4e2d\u56fd\u8bb0\u534f \u5883\u5916\u8bb0\u8005 \u6d3b\u52a8\u4e2d\u5fc3 \u4f53\u5236\u673a\u5236 \u79ef\u6781\u53c2\u4e0e \u515a\u548c\u56fd\u5bb6 \u91cd\u5927\u6d3b\u52a8 \u65b0\u95fb \u670d\u52a1 \u7ec4\u7ec7 \u65b0\u95fb\u53d1\u5e03 \u96c6\u4f53 \u91c7\u8bbf \u6d3b\u52a8 \u5883\u5916 \u8bb0\u8005\u91c7\u8bbf \u63d0\u4f9b \u4fbf\u5229 \u652f\u6301 \u7d27\u7d27\u56f4\u7ed5 \u515a\u548c\u56fd\u5bb6 \u5de5\u4f5c \u5927\u5c40 \u7d27\u7d27\u56f4\u7ed5 \u5916\u4ea4 \u5de5\u4f5c \u603b\u4f53 \u90e8\u7f72 \u56de\u5e94 \u5883\u5916\u5a92\u4f53 \u5173\u6ce8 \u642d\u5efa \u6d77\u5916 \u534e\u6587\u5a92\u4f53 \u56fd\u5185 \u65b0\u95fb\u5a92\u4f53 \u65b0\u95fb \u9662\u6821 \u4ea4\u6d41\u5e73\u53f0 \u52a0\u5927 \u5730\u65b9 \u8bb0\u534f \u6e2f\u6fb3\u53f0\u4fa8 \u65b0\u95fb \u793e\u56e2 \u5a92\u4f53 \u4ea4\u6d41 \u6307\u5bfc \u652f\u6301\u529b\u5ea6 \u6df1\u5316 \u6e2f\u6fb3\u53f0 \u65b0\u95fb\u754c \u4ea4\u6d41 \u5de5\u4f5c \u7b2c\u4e03 \u62d3\u5c55 \u5e72\u90e8 \u4ea4\u6d41 \u6210\u957f \u6e20\u9053 \u63d0\u5347 \u961f\u4f0d \u6574\u4f53\u7d20\u8d28 \u4e13\u804c \u6302\u804c \u65b9\u5f0f \u4e2d\u56fd \u8bb0 \u534f\u540c \u5730\u65b9 \u8bb0\u534f \u4e13\u4e1a \u8bb0\u534f \u65b0\u95fb \u5355\u4f4d \u53cc\u5411 \u4ea4\u6d41 \u5065\u5168 \u515a\u7ec4 \u8054\u7cfb\u70b9 \u5236\u5ea6 \u515a\u7ec4\u6210\u5458 \u9009\u62e9 \u5bb6 \u5a92\u4f53 \u5730\u65b9 \u8bb0\u534f \u65b0\u95fb \u9662\u6821 \u8054\u7cfb\u70b9 \u63d0\u51fa \u91cd\u70b9 \u8bfe\u9898 \u4e13\u9898\u8c03\u7814 \u5efa\u7acb \u4e66\u8bb0 \u8c03\u7814 \u5236\u5ea6 \u4e66\u8bb0\u5904\u4e66\u8bb0 \u8d74 \u4e2d\u592e \u65b0\u95fb \u5355\u4f4d \u5730\u65b9 \u8c03\u7814 \u51c6\u786e \u65b0\u95fb \u961f\u4f0d \u601d\u60f3\u5de5\u4f5c \u751f\u6d3b\u72b6\u51b5 \u503e\u542c \u4e00\u7ebf \u65b0\u95fb \u5de5\u4f5c\u8005 \u547c\u58f0 \u65b9\u6848 \u7ec4\u7ec7 \u9886\u5bfc \u6df1\u5165\u7ec6\u81f4 \u505a\u597d \u673a\u5173\u5e72\u90e8 \u601d\u60f3\u5de5\u4f5c \u8ddf\u8e2a \u68c0\u67e5 \u786e\u4fdd \u5404\u9879\u6539\u9769 \u4e3e\u63aa \u843d\u5230\u5b9e\u5904
p9
sS'0000000000000000000000101101010001001010010010000011010001010001'
p10
V\u4e60\u603b\u4e66\u8bb0 \u5f53\u5e74 \u63d0 \u4e3d\u6c34 \u5e72 \u548b\u6837 5\u6708 \u65e5 \u6d59\u6c5f\u65e5\u62a5 \u5934\u7248\u5934\u6761 \u520a\u767b \u7262\u8bb0 \u5631\u6258 \u4e89\u5f53 \u7eff\u8272\u53d1\u5c55 \u63a2\u8def\u8005 \u6a21\u8303\u751f \u79c0\u5c71 \u4e3d\u6c34 \u6b63\u9752\u6625 \u5168\u6587\u5982\u4e0b \u5c71 \u91cd\u91cd \u6c34 \u91cd\u91cd \u4e91\u6de1\u98ce\u6e05 \u6d17 \u78a7\u7a7a \u557c\u83ba \u4f34 \u9053\u4e2d \u8d70\u8fdb \u4e3d\u6c34 \u7eff\u6c34\u9752\u5c71 \u76c8 \u76ee \u4eba\u5fc3 \u65f7 \u8212\u6000 \u6d59\u6c5f \u751f\u6001 \u82b1\u56ed \u534e\u4e1c \u751f\u6001\u5c4f\u969c \u56fd\u5bb6\u751f\u6001 \u793a\u8303\u533a \u5c71 \u6c5f\u6d59 \u4e4b\u5dc5 \u6c5f\u6d59 \u7b2c\u4e00\u7b2c\u4e8c \u9ad8\u5cf0 \u6d77\u62d4 \u5343\u7c73 \u5c71\u5cf0 \u5ea7 \u6c34 \u516d \u6c5f \u6e90 \u74ef\u6c5f \u94b1\u5858\u6c5f \u98de\u4e91 \u6c5f \u6912\u6c5f \u95fd\u6c5f \u8d5b \u6c5f\u53d1\u6e90 \u4e8e\u6b64 \u68ee\u6797 \u8986\u76d6\u7387 \u5c45 \u5168\u56fd \u7247 \u5360 \u6d59\u6c5f \u9646\u57df \u9762\u79ef \u516d\u5206\u4e4b\u4e00 \u7eff\u6c34\u9752\u5c71 \u65f6\u4efb \u6d59\u6c5f \u7701\u59d4\u4e66\u8bb0 \u4e60\u8fd1\u5e73 \u5c24\u4e3a \u5173\u5207 \u4e3b\u653f \u6d59\u6c5f \u671f\u95f4 \u516b \u4e3d\u6c34 \u79f0\u8d5e \u79c0\u5c71 \u4e3d\u6c34 \u5929\u751f\u4e3d\u8d28 \u7559\u4e0b \u8c06\u8c06 \u5631\u6258 \u7eff\u6c34\u9752\u5c71 \u91d1\u5c71\u94f6\u5c71 \u4e3d\u6c34 \u5c24\u4e3a \u591a\u5e74 \u7262\u8bb0 \u4e60\u8fd1\u5e73 \u5631\u6258 \u516b\u516b\u6218\u7565 \u6307\u5f15 \u4e3d\u6c34 \u8df5\u884c \u4e24\u5c71 \u601d\u60f3 \u4e89\u5f53 \u7eff\u8272\u53d1\u5c55 \u63a2\u8def\u8005 \u6a21\u8303\u751f \u751f\u6001\u73af\u5883 \u72b6\u51b5\u6307\u6570 \u8fde\u7eed \u5e74 \u5c45 \u5168\u7701\u7b2c\u4e00 \u5168\u56fd\u524d\u5217 \u53bb\u5e74 \u57ce\u4e61\u5c45\u6c11 \u6536\u5165\u589e\u5e45 \u5168\u7701\u7b2c\u4e00 \u519c\u6c11 \u6536\u5165\u589e\u5e45 \u8fde\u7eed \u5e74 \u5168\u7701\u7b2c\u4e00 \u4e5d \u53bf\u5e02\u533a \u519c\u6c11 \u4eba\u5747 \u53ef\u652f\u914d \u6536\u5165 \u8d85\u4e07\u5143 \u666f\u5b81 \u7572\u4e61 \u674e\u5b9d \u6751 \u80a9\u8d1f \u5c24\u4e3a \u653f\u6cbb \u62c5\u5f53 \u5c65\u884c \u751f\u6001\u4fdd\u62a4 \u7b2c\u4e00\u8d23\u4efb \u8d70\u51fa \u4e3d\u6c34 \u9ad8\u94c1 \u7ad9\u5728 \u7ad9\u524d \u5e7f\u573a \u7535\u52a8\u6c7d\u8f66 \u5206\u65f6 \u79df\u8d41\u70b9 \u73b0\u573a \u529e \u5f20 \u5361 \u79df \u8f86 \u7535\u52a8\u6c7d\u8f66 \u7545\u884c \u4e3d\u6c34 \u8fd9\u662f \u4e3d\u6c34 \u91cd\u89c6 \u751f\u6001\u73af\u5883 \u4fdd\u62a4 \u7559\u4e0b \u7b2c\u4e00\u5370\u8c61 \u4e3d\u6c34 \u5df2\u6709 \u8f86 \u5206\u65f6\u79df\u8d41 \u7535\u52a8\u6c7d\u8f66 \u5954\u8dd1 \u57ce\u4e61 \u65b0\u589e \u8f86 \u6295\u653e \u4e00\u8f86 \u5206\u65f6\u79df\u8d41 \u7535\u52a8\u6c7d\u8f66 \u51cf\u5c11 \u8f86 \u79c1\u5bb6\u8f66 \u51cf\u5c11 \u78b3\u6392\u653e \u5428 \u5168\u7701 \u9996\u521b \u9879\u76ee \u4e3d\u6c34 \u5168\u5e02 \u5e03\u70b9 \u5904 \u5145\u7535 \u8f66\u4f4d 5\u4e2a \u8986\u76d6 \u83b2\u90fd\u533a \u4e61\u9547 \u8857\u9053 \u5ef6\u4f38 \u9f99\u6cc9 \u7f19\u4e91 \u4e91\u548c \u677e\u9633 \u9752\u7530 \u9042\u660c \u53bf\u5e02 \u4e60\u8fd1\u5e73 \u5f53\u5e74 \u4e3d\u6c34 \u8c03\u7814 \u65f6 \u6307\u51fa \u751f\u6001 \u4e3d\u6c34 \u4f18\u52bf \u5b88\u4f4f \u8fd9\u65b9 \u51c0\u571f \u5b88\u4f4f \u91d1\u996d\u7897 \u4e3d\u6c34 \u5386\u5c4a \u5e02\u59d4 \u5e02\u653f\u5e9c \u5c24\u4e3a \u62c5\u5f53 \u7cbe \u795e\u5c06 \u751f\u6001\u4fdd\u62a4 \u7b2c\u4e00\u8d23\u4efb \u653f\u6cbb\u8d23\u4efb \u5b88\u4f4f \u751f\u6001 \u5e95\u7ebf \u5e74 \u786e\u7acb \u751f\u6001\u7acb\u5e02 \u5de5\u4e1a\u5f3a\u5e02 \u7eff\u8272 \u5174\u5e02 \u4e09\u5e02 \u5e76\u4e3e \u53d1\u5c55\u6218\u7565 \u5e74 \u63d0\u51fa \u6253\u9020 \u5168\u56fd \u751f\u6001\u4fdd\u62a4 \u751f\u6001 \u7ecf\u6d4e\u53d1\u5c55 \u53cc \u793a\u8303\u533a \u4e3d\u6c34 \u62c9\u9ad8 \u751f\u6001\u6587\u660e \u5efa\u8bbe \u6807\u6746 \u89c4\u5212 \u4e25\u63a7 3\u4e07 \u5e73\u65b9\u516c\u91cc \u5e02 \u57df \u9762\u79ef \u5206\u4e3a \u7981\u6b62 \u51c6\u5165 \u533a \u51c6\u5165 \u533a \u91cd\u70b9 \u51c6\u5165 \u533a \u4f18\u5316 \u51c6\u5165 \u533a \u5e02 \u57df \u9762\u79ef \u5212\u5165 \u81ea\u7136 \u751f\u6001\u7ea2\u7ebf \u533a \u751f\u6001\u529f\u80fd \u4fdd\u969c \u533a \u519c\u4ea7\u54c1 \u73af\u5883 \u4fdd\u969c \u533a \u5f3a\u5316 \u7ea2\u7ebf \u7ba1\u6cbb \u6e90\u5934 \u4fdd\u62a4 \u751f\u6001 \u5e76\u8981 \u6c42 \u5de5\u4e1a\u96c6\u805a \u8fdb \u56ed\u533a \u56ed\u533a \u5de5\u4e1a \u751f\u6001\u5316 \u5236\u5ea6 \u4e25\u7ba1 \u5e74 \u56fd\u5185 \u7387\u5148 \u5236\u5b9a \u5b9e\u65bd \u751f\u6001\u6587\u660e \u5efa\u8bbe \u7eb2\u8981 \u5efa\u7acb \u4e00\u6574\u5957 \u751f\u6001 \u7ba1\u63a7 \u5ba1\u8ba1 \u8003\u6838 \u95ee\u8d23 \u5236\u5ea6 \u4f53\u7cfb \u4e25\u6cbb 14\u5e74 \u5168\u7701 \u7387\u5148 \u51fa\u53f0 \u751f\u6001 \u5de5\u4e1a\u53d1\u5c55 \u8d1f\u9762\u6e05\u5355 \u5e74\u6765 \u5426\u51b3 \u9ad8\u6c61\u67d3 \u9ad8\u6392\u653e \u9879\u76ee \u591a\u4e2a \u76f8\u7ee7 \u5408\u6210\u9769 \u4e0d\u9508\u94a2 \u94a2\u94c1 \u9600\u95e8 \u94f8\u9020 \u884c\u4e1a\u6574\u6cbb \u4e0d\u60dc \u51cf\u5c11 \u5e74 \u5de5\u4e1a\u4ea7\u503c \u591a\u4ebf\u5143 \u5e74\u6765 \u91cd\u5de5\u4e1a \u5360 \u4e8c\u4ea7 \u6bd4\u91cd \u7d2f\u8ba1 \u4e0b\u964d \u767e\u5206\u70b9 \u5355\u4f4dgdp\u80fd\u8017 \u6c34\u5e73 \u5904\u4e8e \u5168\u7701 \u524d\u5217 \u975e \u5316\u77f3\u80fd\u6e90 \u5360 \u4e00\u6b21\u80fd\u6e90 \u6d88\u8d39 \u6bd4\u91cd \u8fbe \u6cbb\u6c34 \u6cbb\u6c14 \u6cbb \u571f \u6cbb\u5c71 \u6d88\u9664 \u52a3 \u7c7b \u6c34 \u5e02\u533a \u7a7a\u6c14 \u5e38\u5e74 \u4f18\u826f\u7387 \u8d85\u8fc7 \u7a33\u5c45 \u5168\u56fd \u524d\u5341 \u7387\u5148 \u7701\u7ea7 \u751f\u6001\u53bf \u5168\u8986\u76d6 \u4e91\u548c \u56db \u53bf \u56fd\u5bb6\u7ea7 \u751f\u6001\u53bf \u751f\u6001\u6587\u660e \u603b \u6307\u6570 \u5168\u7701\u7b2c\u4e00 \u5b88\u4f4f \u8fd9\u65b9 \u51c0\u571f \u4e3d\u6c34 \u672a \u8d1f\u91cd \u6258 \u7f19\u4e91 \u82b1\u6d77 \u4e2d \u767d\u8272 \u98ce\u8f66 \u8df5\u884c \u5c24\u4e3a \u9ad8 \u6293\u597d \u7eff\u8272\u53d1\u5c55 \u751f\u6001 \u60e0\u6c11 \u7b2c\u4e00\u8981\u52a1 \u4e3d\u6c34 \u5e72\u90e8 \u6570\u5b57 \u7279\u522b \u4e3d\u6c34 \u5e02\u59d4\u515a\u6821 \u6625\u5b63 \u5f00\u5b66\u5178\u793c \u5e02\u59d4 \u8d1f\u8d23\u4eba \u8bf4 \u5e74 \u4e3d\u6c34 gdp \u8fbe 200\u4ebf \u5143 \u5e74 \u500d \u5f88\u5927 \u53bb\u5e74 \u5168\u7701 \u5404\u53bf\u5e02 \u533a \u4e2d \u8427\u5c71\u533a 9\u4ebf \u5143 \u6b63\u597d \u6c5f\u6d59 \u7b2c\u4e00 \u9ad8\u5cf0 \u9f99\u6cc9 \u51e4\u9633\u5c71 \u9ec4\u8305\u5c16 \u6d77\u62d4\u9ad8\u5ea6 \u5e02 \u533a \u5dee\u8ddd \u5e74 \u7701\u59d4 \u4e3d\u6c34 \u4f5c\u51fa \u8003\u6838 gdp \u8003 \u6838\u5de5\u4e1a \u589e\u52a0\u503c \u9f13\u52b1 \u4e3d\u6c34 \u8f7b\u88c5\u4e0a\u9635 \u805a\u529b \u7eff\u8272\u53d1\u5c55 \u7b49\u4e8e \u4e3d\u6c34 gdp \u4e3d\u6c34 \u540e\u53d1 \u5e02\u60c5 \u751f\u6001 \u4f18\u52bf \u51fa\u53d1 \u8d70 \u7eff\u8272\u53d1\u5c55 \u79d1\u5b66 \u8d76\u8d85 \u4e4b\u8def \u5168\u7701 \u540c\u6b65 \u9ad8\u6c34\u5e73 \u5efa\u6210 \u5c0f\u5eb7\u793e\u4f1a \u7ecf\u6d4e \u53d1\u8fbe \u7701\u4efd \u6d59\u6c5f \u7eff\u6c34\u9752\u5c71 \u4e3d\u6c34 \u7eff\u6c34\u9752\u5c71 \u91d1\u5c71\u94f6\u5c71 \u63a2\u7d22 \u5168\u7701 \u5168\u56fd \u9887\u6709 \u610f\u4e49 \u7eff\u6c34\u9752\u5c71 \u81ea\u52a8 \u5e26\u6765 \u91d1\u5c71\u94f6\u5c71 \u519c\u4e1a \u4f9b\u7ed9\u4fa7 \u7ed3\u6784\u6027 \u6539\u9769 \u7f8e\u4e3d\u4e61\u6751 \u5efa\u8bbe \u519c \u65c5 \u878d\u5408 \u4e3d\u6c34 \u8f6c\u5316 \u4e24\u5c71 \u4e00\u628a \u91d1\u94a5\u5319 \u7aef\u5348 \u65f6\u8282 \u6787\u6777 \u4e0a\u5e02 \u65f6 \u8857\u5934 \u6c34\u679c \u5e97\u91cc \u4e3d\u6c34 \u5c71 \u8015 \u54c1\u724c \u767d \u6787\u6777 0\u5143 \u4e00\u65a4 \u65c1\u8fb9 \u5916\u5730 \u7ea2 \u6787\u6777 \u5143 \u4e00\u65a4 \u4e3d\u6c34 \u5c71 \u8015 \u4e3d\u6c34\u5e02 \u653f\u5e9c 14\u5e74 \u4e3b\u5bfc \u63a8\u51fa \u5168\u56fd\u9996\u4e2a \u5730\u7ea7\u5e02 \u519c\u4ea7\u54c1 \u533a\u57df \u516c\u7528 \u54c1\u724c \u4e3d\u6c34 \u5c71 \u597d\u6c34 \u7a7a\u6c14\u597d \u5168\u5e02 \u62e5\u6709 \u65e0\u516c\u5bb3 \u519c\u4ea7\u54c1 \u7eff\u8272\u98df\u54c1 \u6709\u673a \u519c\u4ea7\u54c1 \u54c1\u724c \u5206\u6563 \u96be\u4ee5 \u5e02\u573a \u8bdd\u8bed\u6743 \u4e3d\u6c34 \u5c71 \u8015 \u751f\u6001\u5316 \u751f\u4ea7 \u54c1\u724c\u5316 \u8fd0\u4f5c \u7535\u5546\u5316 \u9500\u552e \u65b9\u5f0f \u91cf\u4ef7\u9f50\u5347 \u6536\u5165\u500d\u589e \u4e24\u5e74 \u5168\u5e02 \u5df2\u6709 \u519c\u4ea7\u54c1 \u52a0\u76df \u4e3d\u6c34 \u5c71 \u8015 \u7d2f\u8ba1 \u9500\u552e \u8d85\u8fc7 30\u4ebf\u5143 \u5e73\u5747 \u6ea2\u4ef7 \u5e74 \u5168\u5e02 \u5efa\u6210 \u6d77\u62d4 \u7c73 \u4e3d\u6c34 \u5c71 \u8015 \u7eff\u8272 \u6709\u673a \u519c\u4ea7\u54c1 \u57fa\u5730 100\u4e07 \u4ea9 \u5c71\u8d27 \u8d70\u51fa \u5c71\u95e8 \u5c71\u666f \u94b1\u666f \u4e3d\u6c34 \u7f8e\u4e3d\u4e61\u6751 \u5efa\u8bbe \u63a8\u52a8 \u519c\u4e1a \u56ed\u533a \u5316 \u519c\u6751 \u666f\u533a \u5316 \u751f\u6001 \u7cbe\u54c1 \u519c\u4e1a \u56ed\u533a \u519c\u4e1a \u666f\u89c2\u5e26 \u5bb6\u5ead\u519c\u573a \u65c5\u6e38 \u76ee\u7684\u5730 \u7cbe\u54c1 \u519c\u4ea7\u54c1 \u65c5\u6e38\u5730 \u5546\u54c1 \u519c\u623f \u519c\u5bb6\u4e50 \u6c11\u5bbf \u5927\u5c71\u6df1\u5904 \u9f99\u6cc9 \u5b9d\u6eaa\u4e61 \u5c71\u6e05\u6c34\u79c0 \u74ef\u6c5f \u94b1\u5858\u6c5f \u95fd\u6c5f \u53d1\u6e90\u5730 \u5c0f\u4f5c\u574a \u6dd8\u6d17 \u74f7\u571f \u6c61\u6c34 \u76f4\u6392 \u5b9d \u6eaa \u4e00\u5ea6 \u725b\u5976 \u6eaa \u6751\u5e72\u90e8 \u5e26\u9886 \u6cbb\u6c34 \u6362\u6765 \u6eaa \u6e05\u6d41 \u4e2d\u5b9d \u6eaa \u751f\u6001\u73af\u5883 \u9688\u7814\u543e \u4f4d \u56fd\u9645 \u5efa\u7b51\u5927\u5e08 \u4e3e\u529e \u56fd\u9645\u7af9\u5efa\u7b51\u53cc\u5e74\u5c55 \u7559\u4e0b \u5ea7 \u5404\u5177\u7279\u8272 \u7af9\u5efa\u7b51 \u53bb\u5e74 \u4e07\u4eba\u6b21 \u6e38\u5ba2 \u6765\u5b9d \u6eaa \u65c5\u6e38 \u5168\u4e61 \u529e\u8d77 \u591a\u5bb6 \u6c11\u5bbf \u7ee7 \u79cd\u690d\u4e1a \u517b\u6b96\u4e1a \u5916\u51fa\u52a1\u5de5 \u8001 \u4e09\u5b9d \u519c\u6751\u7535\u5546 \u6765\u6599\u52a0\u5de5 \u519c\u5bb6\u4e50 \u4e0e\u6c11 \u5bbf \u4e3d\u6c34 \u519c\u6c11\u81f4\u5bcc \u65b0 \u4e09\u5b9d \u5e74 \u5168\u5e02 \u519c\u7279\u4ea7 \u54c1 \u7f51\u4e0a\u9500\u552e \u4ebf\u5143 \u4e0a\u5e74 \u589e\u957f \u5168\u5e02 \u519c\u5bb6\u4e50 \u6c11\u5bbf \u8425\u6536 3\u4ebf\u5143 \u4e0a\u5e74 \u589e\u957f \u5168\u5e02 \u519c\u6c11 \u4eba\u5747 \u53ef\u652f\u914d \u6536\u5165 64 \u5143 \u4e0a\u5e74 \u589e\u957f \u7eff\u6c34\u9752\u5c71 \u4e00\u79cd \u7ade\u4e89\u529b \u4f53\u73b0 \u4e00\u4e09 \u4ea7\u4e1a \u4f53\u73b0 \u7b2c\u4e8c\u4ea7\u4e1a \u4e3d\u6c34 \u5de5\u4e1a\u7528\u5730 \u9762\u79ef \u4ec5 \u5360 \u5e02 \u57df \u9762\u79ef 64 \u751f\u6001 \u87ba\u86f3 \u58f3\u91cc \u505a \u9053\u573a \u805a\u529b \u53d1\u5c55 \u751f\u6001 \u5de5\u4e1a \u8d70\u8fdb \u9f99\u6cc9 \u751f\u6001 \u4ea7\u4e1a\u56ed \u56db\u5ddd \u79d1\u4f26\u836f\u4e1a \u6295\u8d44 10\u4ebf \u5143 \u56fd \u955c \u836f\u4e1a \u5f02\u5730 \u8fc1\u5efa\u9879\u76ee \u4e3b\u4f53 \u5efa\u7b51 \u5b8c\u5de5 \u9879\u76ee \u5e74\u5185 \u6295\u4ea7 \u5efa\u6210 \u4ea7\u503c \u4ebf\u5143 \u5229\u7a0e 1\u4ebf \u5143 \u8bf4\u8d77 \u5e03\u5c40 \u9f99\u6cc9 \u9879\u76ee \u8d1f\u8d23\u4eba \u8bf4 \u56fd \u955c \u836f\u4e1a \u751f\u4ea7 \u5927\u8f93\u6db2 \u4ea7\u54c1 \u7a7a\u6c14 \u6c34 \u8d28\u91cf \u7279\u522b \u9ad8 \u9f99\u6cc9 \u4f01\u4e1a \u6c34\u51c0\u5316 \u6210\u672c \u4f4e \u7a7a\u6c14 \u8fc7\u6ee4 \u7cfb\u7edf \u6ee4\u82af \u5916\u5730 \u4e00\u5e74 \u6362 \u9f99\u6cc9 \u56db\u4e94\u5e74 \u4e0d\u7528 \u6362 \u79d1\u4f26\u836f\u4e1a \u5168\u56fd \u5bb6 \u751f\u4ea7\u57fa\u5730 \u8981\u6570 \u9f99\u6cc9 \u57fa\u5730 \u751f\u4ea7\u6210\u672c \u6700\u4f4e \u5e74 \u4e3d\u6c34 \u9ad8\u65b0\u6280\u672f \u4ea7\u4e1a \u589e\u52a0\u503c \u5360 \u89c4 \u5de5\u4e1a \u6bd4\u91cd \u53d1\u8fbe\u5730\u533a \u76f8\u6bd4 \u6570\u636e \u4e0d\u8d77\u773c \u8fd1 \u767e\u5206\u70b9 \u63d0\u5347 5\u5e74 \u79c0\u7f8e\u7684 \u53e4\u5830\u753b\u4e61 \u8ffd\u6c42 \u5c24\u4e3a \u9ad8\u5883\u754c \u8d70\u5411 \u73af\u5883 \u7ecf\u6d4e\u751f\u6d3b \u7f8e\u7f8e \u5171 \u4e3d\u6c34 \u4e5d\u5c71\u534a\u6c34\u534a\u5206\u7530 \u4e3d\u6c34 \u5927\u5c71 \u611f\u60c5 \u5c71 \u751f\u4e8e \u65af \u957f\u4e8e \u65af \u5bb6\u56ed \u675f\u7f1a \u95ef\u8361 \u4e16\u754c \u811a\u6b65 \u5343\u767e\u5e74\u6765 \u7559\u4e0b \u4e00\u58f0 \u53f9\u606f \u7a77 \u5c71\u4e0a \u82e6 \u5728\u8def\u4e0a \u51e0\u5e74 \u4e3d\u6c34 \u4ea4\u901a\u6761\u4ef6 \u53d1\u751f \u5929\u7ffb\u5730\u8986 \u53d8\u5316 \u53bf\u53bf\u901a \u9ad8\u901f \u6751\u6751\u901a \u5eb7\u5e84 \u516c\u8def \u91d1\u4e3d\u6e29 \u9ad8\u94c1 \u5f00\u901a \u4ea4\u901a \u6539\u5584 \u63a8\u52a8 \u4eba\u6d41\u7269\u6d41 \u96c6\u805a \u7eff\u6c34\u9752\u5c71 \u91d1\u5c71\u94f6\u5c71 \u8f6c\u5316 \u521b\u9020 \u5fc5\u8981\u6761\u4ef6 \u7b15 \u5ddd \u6751 \u91d1\u4e3d\u6e29 \u9ad8\u901f \u7f19\u4e91 \u51fa\u53e3 \u4e24\u516c\u91cc \u7f19\u4e91 \u9ad8\u94c1\u7ad9 \u516c\u91cc \u53bb\u5e74 \u8fc1 \u83c7 \u68da \u62c6 \u732a\u68da \u62fe\u6387 \u51fa \u591a\u4ea9 \u571f\u5730 \u9c9c\u82b1 \u6751\u6c11\u4eec \u8bf4 \u4ea4\u901a \u7b15 \u5ddd \u82b1\u6d77 \u7ea2 \u4e3d\u6c34 \u4e00\u6279 \u5019\u9e1f\u5f0f \u517b\u751f \u517b\u8001\u57fa\u5730 \u6e10\u663e \u96cf\u5f62 \u4e00\u6279 \u4e61\u6751 \u521b\u5ba2 \u96c6\u805a\u533a \u6253\u9020 \u4e3d\u6c34\u5e02 \u653f\u5e9c \u8d1f\u8d23\u4eba \u8bf4 \u57ce\u5e02 \u6240\u80fd \u96c6\u805a \u9ad8\u6d88\u8d39 \u9884\u671f \u5f3a \u521b\u4e1a \u613f\u671b \u52a8\u6001 \u4eba\u53e3 \u8d8a\u591a \u5c31\u8d8a \u7ade\u4e89\u529b \u5584\u7528 \u4ea4\u901a \u52a9\u63a8 \u670d\u52a1\u4e1a \u53d1\u5c55 \u8c0b\u53d6 \u66f4\u591a \u52a8\u6001 \u4eba\u53e3 \u5e26\u6765 \u6d88\u8d39 \u7ea2\u5229 \u7eff\u6c34\u9752\u5c71 \u81ea\u7136\u8d44\u6e90 \u521b\u5bcc \u8d44\u672c \u5c71 \u5df2\u4e0d \u5c71\u6c34 \u6c34 \u4eba\u548c \u81ea\u7136 \u5173\u7cfb \u53d8 \u89c1 \u9752\u5c71 \u59a9\u5a9a \u6599 \u9752\u5c71 \u89c1 \u5e94 \u56de\u4e61 \u6295\u8d44 \u68af\u7530 \u65c5\u6e38 \u9752\u7530 \u90b9 \u4ec1\u7231 \u8bf4 \u56de\u4e61 \u771f\u7684 \u627e \u4e0d\u5230 \u6295\u8d44 \u5730\u65b9 \u56de\u6765 \u9752\u5c71\u7eff\u6c34 \u4f18\u8d28\u8d44\u6e90 \u666f\u5b81\u7572\u65cf\u81ea\u6cbb\u53bf \u5927\u5747\u4e61 \u5c71\u6e05\u6c34\u79c0 \u6797\u5bc6 \u5174\u8d77 \u7572\u4e61 \u751f\u6001\u6e38 \u676d\u5dde \u697c\u5916\u697c \u5e72\u4e86 \u5e74 \u4e3b\u53a8 \u6f58 \u4e3d \u52c7 \u5e74 \u653e\u5f03 \u676d\u5dde \u9ad8\u85aa \u56de\u6751 \u5f00\u8d77 \u519c\u5bb6\u4e50 \u4eca\u5e74\u6625\u8282 \u6e38\u5ba2 \u4e0d\u8fdc\u5343\u91cc \u800c\u6765 \u53ea\u4e3a \u5c1d\u4e00\u5c1d \u60e0\u660e \u867e\u4ec1 \u5c0f\u6eaa \u918b \u9c7c \u4e3d\u6c34 \u8d8a\u6765\u8d8a\u591a \u8fd4\u4e61 \u62ef\u6551 \u8001\u5c4b \u5b9e\u65bd \u5386\u53f2\u6587\u5316 \u6751\u843d \u4fdd\u62a4 \u5229\u7528 \u5de5\u7a0b \u6295\u8eab \u4f11\u95f2 \u521b\u4e1a \u4ea7\u4e1a \u8d70\u51fa \u5927\u5c71 \u91cd\u56de \u5927\u5c71 \u4eba\u751f \u5faa\u73af \u5386\u53f2 \u5bfb\u627e \u5230\u4e86 \u81ea\u5df1\u4eba \u751f\u7684 \u5c0f\u786e\u5e78 \u5e26\u52a8 \u5bb6\u4e61 \u519c\u5bb6\u4e50 \u6751 \u6c11\u5bbf \u6751 \u751f\u6001\u519c\u4e1a \u6751 \u7701 \u6709\u5173\u90e8\u95e8 \u8c03\u67e5\u663e\u793a \u5168\u7701 1\u4e2a \u8bbe\u533a \u5e02 \u4e2d \u4e3d\u6c34 \u751f\u6001\u73af\u5883 \u8d28\u91cf \u516c\u4f17 \u6ee1\u610f\u5ea6 \u8fde\u7eed \u5e74 \u7b2c\u4e00 \u98df\u54c1\u5b89\u5168 \u516c\u4f17 \u6ee1\u610f\u7387 \u8fde\u7eed \u5e74 \u7b2c\u4e00 \u65b0\u519c\u6751\u5efa\u8bbe \u519c\u6c11 \u6ee1\u610f\u5ea6 \u8fde\u7eed 5\u5e74 \u7b2c\u4e00 \u793e\u4f1a\u9053\u5fb7 \u73af\u5883 \u516c\u4f17 \u6ee1\u610f\u5ea6 \u8fde\u7eed 4\u5e74 \u7b2c\u4e00 \u4e94\u6c34\u5171\u6cbb \u6ee1\u610f\u5ea6 \u7fa4\u4f17 \u5b89\u5168\u611f \u6ee1\u610f\u7387 \u8fde\u7eed \u5e74 \u7b2c\u4e00 \u6c11\u751f\u6539\u5584 \u6ee1\u610f\u5ea6 \u8fde\u7eed \u4e24\u5e74 \u7b2c\u4e00 \u7eff\u6c34\u9752\u5c71 \u91d1\u5c71\u94f6\u5c71 \u6b63 \u4e3d\u6c34 \u5e26\u6765 \u7f8e\u4e3d \u73af\u5883 \u7f8e\u4e3d\u7ecf\u6d4e \u7f8e\u597d\u751f\u6d3b \u8d4b\u4e88 \u8d70\u5411\u4e16\u754c \u6587\u5316\u81ea\u4fe1 19\u4e16\u7eaa 30\u5e74 \u4ee3 40\u5e74 \u4ee3 \u6cd5\u56fd\u5df4\u9ece \u67ab\u4e39\u767d\u9732 \u5df4\u6bd4\u677e \u8bde\u751f \u753b \u5bb6\u4e61 \u8d70\u5411 \u81ea\u7136 \u5df4\u6bd4\u677e \u753b\u6d3e \u7c73\u52d2 \u67ef \u7f57 \u5f53\u5e74 \u60f3\u4e0d\u5230 \u5e74\u540e \u5728\u4e2d\u56fd \u6d59\u6c5f \u5c0f\u9547 \u6fc0\u8d77 \u5386\u53f2 \u56de\u54cd \u74ef\u6c5f \u7554 \u53e4\u5830\u753b\u4e61 \u98ce\u666f\u5982\u753b \u8fd9\u4e9b\u5e74 \u5438\u5f15 \u8d8a\u6765\u8d8a\u591a \u753b\u5bb6 \u5199\u751f \u4e3d\u6c34 \u5df4\u6bd4\u677e \u5e26\u52a8 \u65c5\u6e38 \u5bcc\u88d5 \u519c\u5bb6 15\u5e74 \u83b2\u90fd\u533a \u5df4\u6bd4\u677e \u5e02 \u7ed3\u4e3a \u53cb\u597d\u57ce\u5e02 \u8fd8\u5728 \u6cd5\u56fd \u4e3e\u529e \u8054\u5408 \u753b\u5c55 \u6cd5\u56fd \u56fd\u5bb6 \u7f8e\u534f\u4e3b\u5e2d \u96f7\u7c73 \u827e \u878d \u8bf4 \u83b2\u90fd \u5199\u751f \u521b\u4f5c \u5927\u81ea\u7136 \u5230\u4e86 \u5b8c\u7f8e \u878d\u5408 \u5f88\u597d \u63d0\u4f9b \u4e2d\u897f\u6587\u5316 \u4ea4\u6d41 \u5e73\u53f0 \u7f8e\u4e3d \u73af\u5883 \u7f8e\u4e3d\u7ecf\u6d4e \u7f8e\u597d\u751f\u6d3b \u7f8e\u7f8e \u5171 \u5929\u4e0b\u5927\u540c \u4e3d\u6c34 \u5df2\u6709 \u591a\u5e74 \u5386\u53f2 \u4eba\u7c7b \u8d70\u5411 \u751f\u6001\u6587\u660e \u65f6\u4ee3 \u5982\u753b \u9752\u6625 \u521a\u521a \u5230\u6765 \u6765\u6e90 \u6d59\u6c5f\u65b0\u95fb \u5ba2\u6237\u7aef \u9093 \u5d34 \u65bd \u6653 \u4e49\u9879 \u6377 \u901a\u8baf\u5458 \u9ec4\u8212 \u598d
p11
sS'0000000000000000000000111101111110010010000011101111110001101111'
p12
V\u5e74 \u5168\u56fd \u4e94\u4e00\u52b3\u52a8 \u5956 \u8868\u5f70\u5927\u4f1a \u5728\u4eac\u4e3e\u884c \u65b0\u534e\u793e \u5317\u4eac 4\u6708 \u65e5\u7535 \u5e86\u795d \u4e94\u4e00\u56fd\u9645\u52b3\u52a8\u8282 \u66a8 \u5168\u56fd \u4e94\u4e00\u52b3\u52a8 \u5956 \u5168\u56fd\u5de5\u4eba\u5148\u950b\u53f7 \u8868\u5f70\u5927\u4f1a \u65e5 \u5317\u4eac\u4eba\u6c11\u5927\u4f1a\u5802 \u4e2d\u5171\u4e2d\u592e\u653f\u6cbb\u5c40\u59d4\u5458 \u4e2d\u534e\u5168\u56fd\u603b\u5de5\u4f1a \u4e3b\u5e2d \u674e\u5efa\u56fd \u51fa\u5e2d\u5927\u4f1a \u8bb2\u8bdd \u53d7 \u515a\u4e2d\u592e \u59d4\u6258 \u674e\u5efa\u56fd \u5168\u56fd \u5404\u65cf \u5de5\u4eba \u519c\u6c11 \u77e5\u8bc6\u5206\u5b50 \u5404\u9636\u5c42 \u52b3\u52a8 \u7fa4\u4f17 \u81f4\u4ee5 \u8282\u65e5 \u95ee\u5019 \u5168\u56fd \u4e94\u4e00\u52b3\u52a8 \u5956 \u5168\u56fd\u5de5\u4eba\u5148\u950b\u53f7 \u96c6\u4f53 \u8868\u793a\u795d\u8d3a \u674e\u5efa\u56fd \u6307\u51fa \u5168\u56fd \u52b3\u52a8\u6a21\u8303 \u5e7f\u5927\u804c\u5de5 \u575a\u5b9a\u4e0d\u79fb \u542c \u515a\u8bdd \u8ddf\u515a\u8d70 \u7ef4\u62a4 \u4e60\u8fd1\u5e73 \u603b\u4e66\u8bb0 \u6838\u5fc3 \u5730\u4f4d \u6c38\u8446 \u5de5\u4eba\u9636\u7ea7 \u653f\u6cbb \u672c\u8272 \u5f18\u626c \u52b3\u6a21\u7cbe\u795e \u52b3\u52a8 \u7cbe\u795e \u5de5\u5320\u7cbe\u795e \u5e72\u4e00\u884c \u7231 \u4e00\u884c \u94bb \u4e00\u884c \u4e13\u4e00 \u63a8\u8fdb \u4f9b\u7ed9\u4fa7 \u7ed3\u6784\u6027 \u6539\u9769 \u632f\u5174 \u5b9e\u4f53\u7ecf\u6d4e \u5efa\u529f\u7acb\u4e1a \u8981\u4ee5 \u8fce\u63a5 \u670d\u52a1 \u8d2f\u5f7b \u515a\u7684 \u5341\u4e5d\u5927 \u7ebf \u64b8\u8d77\u8896\u5b50 \u52a0\u6cb9 \u5e72 \u6c47\u805a \u5f3a\u5927 \u6b63\u80fd\u91cf \u5c55\u73b0 \u5de5\u4eba\u9636\u7ea7 \u65f6\u4ee3 \u98ce\u91c7 \u674e\u5efa\u56fd \u63a8\u8fdb \u4e24\u5b66\u4e00\u505a \u5b66\u4e60 \u6559\u80b2 \u5e38\u6001\u5316 \u5236\u5ea6\u5316 \u5de5\u4f1a \u7cfb\u7edf\u5168\u9762 \u4ece\u4e25\u6cbb\u515a \u6218\u7565\u6027 \u57fa\u7840\u6027 \u5de5\u7a0b \u4e60\u8fd1\u5e73 \u603b\u4e66\u8bb0 \u7cfb\u5217 \u91cd\u8981\u8bb2\u8bdd \u7cbe\u795e \u6cbb\u56fd\u7406\u653f \u65b0\u7406\u5ff5 \u65b0 \u601d\u60f3 \u65b0\u6218\u7565 \u6b66\u88c5\u5934\u8111 \u804c\u5de5\u961f\u4f0d \u65b0\u53d8\u5316 \u7814\u7a76 \u89e3\u51b3 \u5de5\u4f1a\u5de5\u4f5c \u65b0\u95ee\u9898 \u63a8\u52a8 \u5de5\u4f1a \u6539\u9769 \u7eb5\u6df1\u53d1\u5c55 \u57fa\u5c42 \u5ef6\u4f38 \u5171\u6709 \u5148\u8fdb\u96c6\u4f53 \u8363\u83b7 \u5168\u56fd\u4e94\u4e00\u52b3\u52a8\u5956\u72b6 69 \u540d \u5148\u8fdb\u4e2a\u4eba \u8363\u83b7 \u5168\u56fd\u4e94\u4e00\u52b3\u52a8\u5956\u7ae0 \u5148\u8fdb\u96c6\u4f53 \u8363\u83b7 \u5168\u56fd\u5de5\u4eba\u5148\u950b\u53f7 \u5927\u4f1a \u5168\u56fd\u603b\u5de5\u4f1a \u526f\u4e3b\u5e2d \u4e66\u8bb0\u5904 \u7b2c\u4e00\u4e66\u8bb0 \u674e\u7389\u8d4b \u4e3b\u6301
p13
sS'0000000000000000000000101001110111001101101000011011110001100100'
p14
V\u6b66\u8b66 \u90e8\u961f \u4e60\u4e3b\u5e2d \u7cfb\u5217 \u91cd\u8981\u8bb2\u8bdd \u5efa \u56e2 \u80b2\u4eba \u592e\u5e7f\u7f51 \u5317\u4eac 4\u6708 \u65e5 \u6d88\u606f \u8bb0\u8005 \u5b59 \u5d07 \u5cf0 \u81e7 \u4f2f\u9633 \u8d3e\u7acb \u6881 \u6f58 \u6bc5 \u4e2d\u56fd\u4e4b\u58f0 \u65b0\u95fb \u62a5\u7eb8\u6458\u8981 \u62a5\u9053 \u65b0\u95fb \u52a8\u8f66\u7ec4 \u6b66\u8b66 \u90e8\u961f \u4e60\u4e3b\u5e2d \u7cfb\u5217 \u91cd\u8981\u8bb2\u8bdd \u5efa \u56e2 \u80b2\u4eba \u5929\u6d25 \u5168\u8fd0\u4f1a \u9996\u679a \u91d1\u724c \u6e58\u7ca4 \u8b66\u65b9 \u8054\u624b \u4fa6\u7834 \u7279\u5927 \u7f51\u7edc\u79c1\u5f69 \u8bc8\u9a97\u6848 \u6b66\u8b66 \u90e8\u961f \u4e60\u4e3b\u5e2d \u7cfb\u5217 \u91cd\u8981\u8bb2\u8bdd \u5efa \u56e2 \u80b2\u4eba \u6b66\u8b66 \u90e8\u961f \u5fd7\u4e39 \u5e7f\u573a \u652f \u90e8\u961f \u521b\u5efa\u4eba \u5218\u5fd7\u4e39 \u5de8\u5e45 \u96d5\u50cf \u5343\u4eba \u5feb\u677f \u961f \u5b66\u4e60 \u4e60\u4e3b\u5e2d \u8bb2\u8bdd \u5feb\u677f \u8868\u6f14 \u5b66\u4e60 \u4e60\u4e3b\u5e2d \u7cfb\u5217 \u8bb2\u8bdd \u4e2d \u90e8\u961f \u7ecf\u5e38\u5316 \u5e38\u6001\u5316 \u5b9a\u671f \u7ec4\u7ec7 \u90e8\u961f \u5b66\u4e60 \u4e60\u4e3b\u5e2d \u7cfb\u5217 \u8bb2\u8bdd \u6311\u6218 \u64c2\u53f0\u8d5b \u5236\u4f5c \u5b66\u4e60 \u4e60\u4e3b\u5e2d \u8bb2\u8bdd \u5e7f\u64ad \u4e13\u680f \u5229\u7528 \u534a\u5c0f\u65f6 \u7ec3 \u519b\u59ff \u542c \u7406\u8bba \u90e8\u961f \u5b98\u5175\u4eec \u65b0\u9896 \u591a\u5a92\u4f53 \u65b9\u5f0f \u4e60\u4e3b\u5e2d \u8bb2\u8bdd \u5165 \u8111 \u5165 \u5fc3 \u8f6c \u5316\u4e3a \u81ea\u89c9 \u6b66\u8b66 \u90e8\u961f\u653f\u59d4 \u9648\u5c0f \u8f6c\u6218 \u7701\u5e02 \u5706\u6ee1\u5b8c\u6210 \u897f\u85cf \u9a7b \u8bad \u7ef4\u7a33 \u6d77\u5173 \u6267\u52e4 \u6025\u96be\u9669\u91cd \u4e00\u767e\u591a \u6b21 \u9762\u5bf9 \u6539\u9769 \u5f3a\u519b \u4e16\u7eaa \u5927\u8003 \u6709\u4fe1\u5fc3 \u51b3\u5fc3 \u4ea4\u51fa \u5408\u683c\u7b54\u5377 \u592e\u5e7f \u8bb0\u8005 \u5b59 \u5d07 \u5cf0 \u81e7 \u4f2f\u9633 \u8fbd\u5b81 \u51cc\u6d77 \u62a5\u9053 \u5929\u6d25 \u5168\u8fd0\u4f1a \u9996\u679a \u91d1\u724c \u7b2c\u5341\u4e09\u5c4a\u5168\u8fd0\u4f1a \u9a6c\u62c9\u677e\u8d5b \u66a8 7\u5929 \u6d25 \u6b66\u6e05 \u56fd\u9645 \u9a6c\u62c9\u677e\u8d5b \u65e5 \u4e0a\u5348 \u9e23\u67aa \u8d77\u8dd1 \u6cb3\u5317 \u961f \u738b\u4f73\u4e3d \u9886\u5148 \u7b2c\u4e8c\u540d \u8fd1 \u5206\u949f \u4f18\u52bf \u7528\u65f6 \u5c0f\u65f6 \u5206 \u79d2 \u593a\u5f97 \u9a6c\u62c9\u677e \u9879\u76ee \u5973\u5b50 \u4e13\u4e1a\u7ec4 \u51a0\u519b \u672c\u5c4a \u5168\u8fd0\u4f1a \u9996\u679a \u91d1\u724c \u4e91\u5357\u961f \u8463\u56fd\u5efa \u5c0f\u65f6 8\u5206 \u79d2 \u593a\u5f97 \u7537\u5b50 \u4e13\u4e1a\u7ec4 \u51a0\u519b \u56fd\u5bb6\u4f53\u80b2\u603b\u5c40 \u7530\u7ba1\u4e2d\u5fc3 \u9a6c\u62c9\u677e \u529e\u516c\u5ba4 \u4e3b\u4efb \u6c34 \u6d9b \u60f3 \u5168\u8fd0\u4f1a \u5168\u56fd \u9a6c\u62c9\u677e \u7cbe\u54c1 \u8d5b\u4e8b \u592e\u5e7f \u8bb0\u8005 \u8d3e\u7acb \u6881\u5929 \u6d25 \u62a5\u9053 \u6e58\u7ca4 \u8b66\u65b9 \u8054\u624b \u4fa6\u7834 \u7279\u5927 \u7f51\u7edc\u79c1\u5f69 \u8bc8\u9a97\u6848 \u53bb\u5e74 \u5e74\u5e95 \u6e56\u5357\u5a04\u5e95 \u65b0\u5316\u53bf \u4e0a\u6885\u9547 \u964c\u751f\u4eba \u51fa\u5165 \u5c45\u6c11\u697c \u8b66\u65b9 \u5173\u6ce8 \u8b66\u65b9 \u53d1\u73b0 \u623f\u95f4 \u91cc \u4eba\u5458 \u5e38\u5728 \u793e\u4ea4\u7f51\u7edc \u63a8\u8350 \u4e00\u79cd \u540d\u4e3a \u65f6\u65f6\u5f69 \u5f69\u7968 \u865a\u62df\u7f51\u7edc \u5e73\u53f0 \u5b9e\u65bd \u8bc8\u9a97 \u79df\u4f4f \u623f\u5c4b \u7f57\u67d0 \u7ea2 \u7f51\u7edc \u540d\u53eb \u4e01\u67d0 \u5b87 \u4e01\u67d0 \u5b87 \u5e7f\u4e1c\u6c5f\u95e8 \u8b66\u65b9 \u4fa6\u529e \u624b\u6cd5 \u7c7b\u4f3c \u7535\u4fe1\u8bc8\u9a97 \u6848\u4ef6 \u4e2d \u5173\u952e\u4eba\u7269 \u4e01\u67d0 \u5b87 \u8bbe\u8ba1\u5236\u4f5c \u540d\u4e3a \u534e\u6cf0 \u56fd\u9645 \u865a\u62df\u7f51\u7edc \u5e73\u53f0 \u79c1\u5f69 \u7f51\u7ad9 \u5e73\u53f0 \u53d7\u5bb3\u4eba \u94b1 \u8fdb \u5acc\u7591\u4eba \u79c1\u4eba\u8d26\u6237 \u7f51\u9875 \u589e\u503c \u76c8\u5229 \u90fd\u662f \u5acc\u7591\u4eba \u540e\u53f0 \u4efb\u610f \u6539\u5199 \u6570\u636e \u8b66\u65b9 \u6709\u94b1 \u63d0\u73b0 \u4e00\u4e07 \u653e\u6389 \u4e0b\u4e00\u6b65 \u5957 \u591a\u4e00\u70b9 \u94b1 \u4e00\u4e07 \u63d0\u51fa \u4e0b\u4e00\u6b65 \u6709\u53ef\u80fd \u5145 \u4e07 \u4e07 \u60f3 \u8d62 \u591a\u4e00\u70b9 3\u6708 \u65e5 \u516c\u5b89\u90e8 \u5211\u4fa6\u5c40 \u7edf\u4e00\u6307\u6325 \u6e56\u5357\u5a04\u5e95 \u5e7f\u4e1c\u6c5f\u95e8 \u5b9e\u65bd \u6293\u6355 \u5211\u4e8b\u62d8\u7559 \u72af\u7f6a\u5acc\u7591\u4eba \u540d \u6467\u6bc1 \u8bc8\u9a97\u72af\u7f6a \u7a9d\u70b9 \u67e5\u6263 \u94f6\u884c\u5361 \u7535\u8111\u624b\u673a \u4f5c\u6848\u5de5\u5177 \u6848\u4ef6 \u8fdb\u4e00\u6b65 \u5ba1\u7406 \u6df1\u6316 \u4e4b\u4e2d
p15
sS'0000000000000000000000111100000110000000110000111111011110111000'
p16
V5\u65e5 2\u4ebf \u5143 lng \u8239 \u5927\u5355 \u4ea4\u7ed9 \u4e2d\u56fd \u9020\u8239\u5382 \u5168\u7403 \u552f\u4e00\u4e00 \u5bb6 \u5efa\u9020 lng \u8239 \u53cc\u76f8 \u4e0d\u9508\u94a2 \u5316\u5b66\u54c1\u8239 \u96c6 \u6eda \u8239 \u9876\u7ea7 \u6c11\u7528 \u8239\u8236 \u8239\u5382 \u6caa\u4e1c \u4e2d\u534e \u4ee3\u8868 \u4e0a\u6d77\u5236\u9020 \u7ad9\u5728 \u4e16\u754c \u8239\u8236\u5de5\u4e1a \u5854\u5c16 \u5168\u7403 \u91d1\u878d\u5371\u673a \u7206\u53d1 \u822a\u8fd0\u4e1a \u9700\u6c42 \u840e\u7f29 \u5df2\u8fd1 \u5e74 \u5168\u7403 \u77e5\u540d \u5404\u5927 \u8239\u4e1c \u6caa\u4e1c \u4e2d\u534e \u5f00\u8d70 \u591a\u8258 \u5927\u578b lng \u8239 \u5428 \u53cc\u76f8 \u4e0d\u9508\u94a2 \u5316\u5b66\u54c1\u8239 \u5428 \u96c6 \u6eda \u8239 \u5148\u8fdb \u8239\u8236 2\u4ebf \u5143 \u4eba\u6c11\u5e01 6\u6708 \u65e5 \u5168\u7403 \u6df1\u9677 \u4f4e\u8ff7 \u9020\u8239\u4e1a \u518d\u5ea6 \u76ee\u5149 \u805a\u7126 \u4e0a\u6d77 \u65e5\u672c \u5546\u8239\u4e09\u4e95 \u516c\u53f8 \u8258 \u5148\u8fdb \u5927\u578b \u6db2\u5316 \u5929\u7136\u6c14 \u8fd0\u8f93\u8239 \u7b80\u79f0 lng \u8239 \u4ef7\u503c \u7ea6 2\u4ebf \u5143 \u4eba\u6c11\u5e01 \u8ba2\u5355 \u5927\u9910 \u4ea4\u7ed9 \u6caa\u4e1c \u4e2d\u534e \u9020\u8239 \u96c6\u56e2 \u6709\u9650\u516c\u53f8 \u70f9\u996a \u8fd9\u7b14 \u8ba2\u5355 \u56fd\u5185 \u9020\u8239\u4e1a \u63a5\u5230 \u8ba2\u5355 2\u4ebf \u5143 \u5927\u5355 \u82b1\u843d \u6caa\u4e1c \u4e2d\u534e \u5076\u7136 \u5168\u7403 \u552f\u4e00\u4e00 \u5bb6 \u5efa\u9020 lng \u8239 \u53cc\u76f8 \u4e0d\u9508\u94a2 \u5316\u5b66\u54c1\u8239 \u96c6 \u6eda \u8239 \u9876\u7ea7 \u6c11\u7528 \u8239\u8236 \u8239\u5382 \u6caa\u4e1c \u4e2d\u534e \u4ee3\u8868 \u4e0a\u6d77\u5236\u9020 \u7ad9\u5728 \u4e16\u754c \u8239\u8236\u5de5\u4e1a \u5854\u5c16 \u6280\u672f \u5bf9\u624b \u671b\u6d0b\u5174\u53f9 \u5e74 \u4e2d\u56fd \u9020\u8239 \u4ea7\u91cf \u5df2\u8fbe 500\u4e07 \u5428 \u5168\u7403\u7b2c\u4e00 \u9020\u8239 \u5927\u56fd \u53bb\u5e74 \u5168\u7403 \u65b0\u8239 \u9700\u6c42\u91cf \u8dcc\u81f3 \u4e07\u5428 \u8239\u4f01 \u7eb7\u7eb7 \u5173\u95e8 \u8f6c\u884c \u56fd\u5185 \u9020\u8239\u4f01\u4e1a \u5012\u95ed \u6709\u540d\u6c14 \u56fd\u6709 \u5927\u578b \u8239\u4f01 \u5c8c\u5c8c\u53ef\u5371 \u6563 \u8d27\u8f6e \u4e2d\u56fd \u9020\u8239\u4e1a \u62f3\u5934\u4ea7\u54c1 \u4f20\u7edf \u4ea7\u54c1 \u906d\u9047 \u51b2\u51fb \u4e07\u5143 \u4e00\u8258 \u6563 \u8d27\u8f6e \u5e02\u573a\u4ef7\u683c \u4e0d\u5230 \u4e07\u5143 \u9ad8\u7aef lng \u8239 \u5168\u7403 \u4ef7\u683c \u4f9d\u7136 \u575a\u633a \u8239\u8236\u884c\u4e1a \u4e1a\u5185\u4eba\u58eb \u6307\u51fa \u4fbf\u662f \u8258 \u8239 2\u4ebf \u5143 \u5927\u5355 \u539f\u56e0 \u6563 \u8d27\u8f6e \u4f20\u7edf \u8239\u578b \u906d\u9047 \u5229\u6da6 \u65ad\u5d16\u5f0f \u4e0b\u8dcc \u65f6 lng \u8239 \u9ad8\u7aef \u8239\u578b \u6280\u672f \u95e8\u69db\u9ad8 \u8bbe\u8ba1 \u5efa\u9020 \u96be\u5ea6 \u5927\u5e02\u573a \u9700\u6c42 \u7a33\u5065\u589e\u957f \u4ea7\u54c1 \u7269\u4ee5\u7a00\u4e3a\u8d35 \u6caa\u4e1c \u4e2d\u534e \u5168\u7403 \u5efa\u9020 \u8584\u819c \u578b lng \u8239 \u8239\u5382 \u5e74 \u7b2c\u4e00\u8258 lng \u8239 \u4ea4\u4ed8 \u5efa\u6210 \u8258 lng \u8239 \u5230\u4e86 \u57c3\u514b\u68ee\u7f8e\u5b5a \u56fd\u9645 \u80fd\u6e90\u5de8\u5934 \u76db\u8d5e \u8ba2\u5355 \u4e2d lng \u8239 \u6caa\u4e1c \u4e2d\u534e \u81ea\u4e3b\u8bbe\u8ba1 \u9996\u6b21 \u5f00\u5efa \u7b2c\u4e09\u4ee3 \u8239\u578b \u5428\u4f4d \u66f4\u5927 \u80fd\u8017 \u5f97\u4ee5 \u4e0b\u964d \u5bc6\u95ed \u7edd\u7f18\u6027 \u66f4\u597d \u66f4\u5927 \u7a0b\u5ea6 \u51cf\u5c11 \u6db2\u5316 \u5929\u7136\u6c14 \u8fd0\u8f93 \u4e2d \u6325\u53d1 \u8fd9\u7b14 \u8ba2\u5355 \u80cc\u540e \u4e5f\u6709 \u6fc0\u70c8 \u7ade\u4e89 \u4e2d\u56fd \u7ade\u4e89 \u6fc0\u70c8 \u4e00\u5bb6 \u97e9\u56fd \u8239\u5382 \u5efa\u9020 lng \u8239 \u5149\u8f89 \u5386\u53f2 \u6700\u7ec8 \u6caa\u4e1c \u4e2d\u534e \u5f3a\u5927 \u7ade\u4e89\u5bf9\u624b \u53ea\u80fd \u671b\u6d0b\u5174\u53f9 \u6982\u5ff5 \u8239 \u521b\u9020 \u4f17\u591a \u4e16\u754c \u7b2c\u4e00 lng \u8239 \u5f88\u53ef\u80fd \u4f4e\u7aef \u4f20\u7edf \u9886\u57df \u60e8\u6de1 \u52c9\u529b \u8c08\u4e0d\u4e0a \u53d1\u5c55 \u66f4 \u96be \u8f6c\u578b \u6caa\u4e1c \u4e2d\u534e \u96c6\u56e2 \u515a\u59d4\u4e66\u8bb0 \u8463\u4e8b\u957f \u9648\u5efa \u826f \u56db\u5e74\u524d \u8377\u5170 \u745e\u5178 \u4e16\u754c \u4e24\u5927 \u822a\u8fd0\u516c\u53f8 \u5efa\u9020 \u6700\u5148\u8fdb \u5927\u578b \u5316\u5b66\u54c1 \u6700\u5148\u8fdb \u96c6 \u6eda \u8239 \u5341\u591a\u8258 \u8239 \u6570\u5341\u4ebf\u5143 \u8ba2\u5355 \u4e16\u754c \u8239\u5382 \u4e0d\u60f3 \u653e\u8fc7 \u8fd9\u4e24\u5757 \u5927\u86cb\u7cd5 \u6982\u5ff5 \u8239 \u4e09\u4e2a \u5b57 \u4f18\u79c0 \u8239\u5382 \u9762\u9732\u96be\u8272 \u5168\u7403 \u6700\u5148\u8fdb \u5428 \u53cc\u76f8 \u4e0d\u9508\u94a2 \u5316\u5b66\u54c1\u8239 \u5168\u81ea\u52a8 \u8d27\u8231 6\u4e07 \u7acb\u65b9\u7c73 \u8d27\u7269 \u5bb9\u79ef \u88c5\u8f7d \u8fd1 \u5343\u79cd \u5316\u5b66\u54c1 \u6210\u54c1\u6cb9 \u56ca\u62ec \u6db2\u4f53 \u8d27\u7269 \u4e16\u754c \u6700\u5148\u8fdb \u96c6 \u6eda \u8239 \u6c7d\u8f66 \u7532\u677f \u9762\u79ef \u8fbe 89 \u5e73\u65b9\u7c73 \u88c5\u8f7d \u6c7d\u8f66 \u591a\u8f86 \u8f66\u578b \u5c42 \u6eda\u88c5 \u7532\u677f \u88c5\u8f7d \u5927\u578b\u98de\u673a \u96c6 \u6eda \u8239 \u8239\u4e1c \u63d0\u4f9b \u6781\u5bcc \u5f39\u6027 \u8fd0\u8425\u6a21\u5f0f \u4e0e\u4f17\u4e0d\u540c \u7ed3\u6784 \u8239\u5382 \u6570\u4ee5\u4e07\u8ba1 \u751f\u4ea7\u6d41\u7a0b \u9053 \u8def\u4e0a \u5e03\u6ee1 \u8346\u68d8 \u5efa\u9020 \u8fc7\u7a0b \u8270\u96be \u51fa\u4e4e\u9884\u6599 \u5efa\u9020 \u6280\u672f lng \u8239 \u66f4 \u8239\u4e1c \u9694 \u4e00\u6bb5\u65f6\u95f4 \u589e\u52a0 \u65b0\u7684 \u8bbe\u8ba1 \u539f\u5b9a \u8bbe\u8ba1 \u53d8\u5316 \u4e2d\u56fd \u9020\u8239 \u96be\u4ee5 \u8ff0 \u8bbe\u8ba1 \u96be\u5173 \u524d \u5999\u8ba1 \u8fed\u51fa \u521b\u9020 \u4f17\u591a \u4e16\u754c \u7b2c\u4e00 \u5efa \u66f4\u591a \u4e2d\u56fd\u9020 \u8d85\u7ea7\u5de5\u7a0b 15\u5e74 10\u6708 \u65e5 \u6caa\u4e1c \u4e2d\u534e \u5efa\u6210 \u4e16\u754c \u9996\u8258 \u8f7d\u91cd\u5428\u4f4d g4 \u578b \u96c6\u88c5\u7bb1 \u6eda\u88c5\u8239 \u5927\u897f\u6d0b \u4e4b\u661f \u8f7d\u8d27\u91cf \u53ef\u8fbe \u591a\u5428 \u521b\u9020 \u4e03\u9879 \u4e16\u754c\u4e4b\u6700 \u6807\u5fd7 \u4e2d\u56fd\u667a\u9020 \u4e89\u96c4 \u56fd\u9645 \u96c6 \u6eda \u8239 \u5e02\u573a \u5b9e\u529b 5\u6708 \u7b2c\u4e94\u8258 \u5927\u897f\u6d0b \u592a\u9633 \u53f7 \u96c6 \u6eda \u8239 \u4ea4\u4ed8 \u8239\u4e1c \u6d77\u5916 \u5a92\u4f53\u62a5\u9053 \u4e2d \u5199\u9053 \u8258 \u4e16\u754c \u6700\u5148\u8fdb \u5428 \u96c6 \u6eda \u8239 \u592a\u9633 \u7167\u4eae \u5927\u897f\u6d0b \u822a\u7ebf \u5f15\u9886 \u9700\u6c42 \u6fc0\u53d1 \u6f5c\u5728\u9700\u6c42 \u65b0\u578b \u8239\u8236 \u6b63 \u822a\u7ebf \u5e26\u6765 \u5f3a\u5fc3\u5242 \u5e74 6\u6708 \u5168\u7403 \u9996\u8258 \u6982\u5ff5 \u8239 \u5428 \u53cc\u76f8 \u4e0d\u9508\u94a2 \u5316\u5b66\u54c1\u8239 \u4ea4\u4ed8 \u8239\u4e1c \u8377\u5170 \u601d \u7279 \u5c3c\u5c14\u68ee \u516c\u53f8 \u8fd9\u5bb6 \u4e16\u754c \u5316\u5b66\u54c1 \u822a\u8fd0\u5de8\u5934 \u611f\u6168\u4e07\u5343 5\u6708 \u8239\u4e1c \u63a5\u6536 \u7b2c\u56db\u8258 \u5316\u5b66\u54c1\u8239 \u65f6 \u547d\u540d \u575a\u97e7 \u53f7 \u540d\u5b57 \u627f\u8f7d \u4e2d\u56fd \u9020\u8239 \u4e00\u540c \u5ea6\u8fc7 \u4e0d\u51e1 \u5c81\u6708 \u4e2d\u56fd \u6210 \u4e16\u754c\u9876\u7ea7 \u5316\u5b66\u54c1\u8239 \u5efa\u9020 \u57fa\u5730 \u66f4\u591a \u8239\u4e1c \u5173\u6ce8 \u5e74 10\u6708 31\u65e5 \u4e00\u5bb6 \u4e16\u754c \u8457\u540d \u5316\u5b66\u54c1 \u822a\u8fd0\u516c\u53f8 \u8258 \u65b0\u578b \u53cc\u76f8 \u4e0d\u9508\u94a2 \u5316\u5b66\u54c1\u8239 \u8ba2\u5355 \u4ea4\u7ed9 \u6caa\u4e1c \u4e2d\u534e \u6caa\u4e1c \u4e2d\u534e \u8bbe\u8ba1 \u4e0b\u4e00\u4ee3 \u5316\u5b66\u54c1\u8239 \u96be\u5ea6 \u66f4\u80dc\u4e00\u7b79 \u8ba1\u5212 \u5e74 \u5efa\u9020 \u6caa\u4e1c \u4e2d\u534e \u4ecb\u7ecd \u8ba2\u5355 \u5728\u624b \u8ba2\u5355 \u5efa\u9020 \u5916 \u52a0\u7d27 \u63a8\u52a8 \u5148\u8fdb lng \u8239 \u9ad8\u7aef \u4ea7\u54c1\u7814\u53d1 \u5de5\u7a0b \u5927\u6d0b \u66f4\u591a \u4e2d\u56fd\u9020 \u8d85\u7ea7\u5de5\u7a0b
p17
sS'0010000000000000000000000111111111001111000110010100010010100011'
p18
V\u5f20\u9ad8\u4e3d \u51fa\u5e2d \u4eac\u6d25\u5180 \u5468\u8fb9\u5730\u533a \u5927\u6c14 \u6c61\u67d3\u9632\u6cbb \u534f\u4f5c \u673a\u5236 \u7b2c\u5341\u6b21 \u4f1a\u8bae \u8bb2\u8bdd \u5f20\u9ad8\u4e3d \u4eac\u6d25\u5180 \u5468\u8fb9\u5730\u533a \u5927\u6c14 \u6c61\u67d3\u9632\u6cbb \u534f\u4f5c \u673a\u5236 \u7b2c\u5341\u6b21 \u4f1a\u8bae \u589e\u5f3a \u56db\u4e2a \u610f\u8bc6 \u594b\u529b \u653b\u575a\u514b\u96be \u505a\u597d \u79cb\u51ac\u5b63 \u5927\u6c14 \u6c61\u67d3\u9632\u6cbb \u5de5\u4f5c 7\u6708 31\u65e5 \u4e2d\u5171\u4e2d\u592e\u653f\u6cbb\u5c40 \u5e38\u59d4 \u56fd\u52a1\u9662\u526f\u603b\u7406 \u5f20\u9ad8\u4e3d \u51fa\u5e2d \u5317\u4eac \u4eac\u6d25\u5180 \u5468\u8fb9\u5730\u533a \u5927\u6c14 \u6c61\u67d3\u9632\u6cbb \u534f\u4f5c \u673a\u5236 \u7b2c\u5341\u6b21 \u4f1a\u8bae \u8bb2\u8bdd \u65b0\u534e\u793e \u8bb0\u8005 \u738b\u6654 \u6444 \u65b0\u534e\u793e \u5317\u4eac 7\u6708 31\u65e5 \u7535 \u4e2d\u5171\u4e2d\u592e\u653f\u6cbb\u5c40 \u5e38\u59d4 \u56fd\u52a1\u9662\u526f\u603b\u7406 \u5f20\u9ad8\u4e3d 31\u65e5 \u51fa\u5e2d \u5317\u4eac \u4eac\u6d25\u5180 \u5468\u8fb9\u5730\u533a \u5927\u6c14 \u6c61\u67d3\u9632\u6cbb \u534f\u4f5c \u673a\u5236 \u7b2c\u5341\u6b21 \u4f1a\u8bae \u8bb2\u8bdd \u5f20\u9ad8\u4e3d \u515a\u4e2d\u592e \u56fd\u52a1\u9662 \u9ad8\u5ea6\u91cd\u89c6 \u5927\u6c14 \u6c61\u67d3\u9632\u6cbb \u5de5\u4f5c \u4e60\u8fd1\u5e73 \u603b\u4e66\u8bb0 \u6307\u51fa \u56f4\u7ed5 \u6539\u5584 \u5927\u6c14\u73af\u5883 \u8d28\u91cf \u89e3\u51b3 \u5927\u6c14 \u73af\u5883\u95ee\u9898 \u7406\u987a \u6574\u5408 \u5927\u6c14\u73af\u5883 \u7ba1\u7406 \u804c\u8d23 \u63a2\u7d22 \u5efa\u7acb \u8de8\u5730\u533a \u73af\u4fdd \u673a\u6784 \u6df1\u5316 \u4eac\u6d25\u5180 \u5468\u8fb9\u5730\u533a \u6c61\u67d3 \u8054\u9632\u8054\u63a7 \u534f\u4f5c \u673a\u5236 \u674e\u514b\u5f3a \u603b\u7406 \u63d0\u51fa \u660e\u786e\u8981\u6c42 \u4e0a\u534a\u5e74 \u5404\u5730\u533a \u5404\u90e8\u95e8 \u7a33\u6b65\u63a8\u8fdb \u5927\u6c14 \u6c61\u67d3\u9632\u6cbb \u5de5\u4f5c \u53d6\u5f97\u6210\u6548 \u4f46\u8981 \u4eac\u6d25\u5180 \u5468\u8fb9\u5730\u533a \u5927\u6c14\u73af\u5883 \u5f62\u52bf \u4f9d\u7136 \u4e25\u5cfb \u7279\u522b \u79cb\u51ac\u5b63 \u5927\u6c14\u6c61\u67d3 \u6cbb\u7406 \u8584\u5f31\u73af\u8282 \u8fdb\u4e00\u6b65 \u601d\u60f3\u8ba4\u8bc6 \u7edf\u4e00 \u515a\u4e2d\u592e \u56fd\u52a1\u9662 \u51b3\u7b56 \u90e8\u7f72 \u7a33\u4e2d\u6c42\u8fdb \u5de5\u4f5c \u603b \u57fa\u8c03 \u66f4 \u9488\u5bf9\u6027 \u63aa\u65bd \u624e\u5b9e \u505a\u597d \u79cb\u51ac\u5b63 \u5927\u6c14 \u6c61\u67d3\u9632\u6cbb \u5de5\u4f5c \u5f20\u9ad8\u4e3d \u7a81\u51fa\u91cd\u70b9 \u96be\u70b9 \u6df1\u5165\u5f00\u5c55 \u79cb\u51ac\u5b63 \u5927\u6c14\u6c61\u67d3 \u7efc\u5408\u6cbb\u7406 \u653b\u575a \u6e90\u5934 \u5165\u624b \u5168\u9762\u5b8c\u6210 \u519c\u6751 \u6563\u7164 \u6e05\u6d01 \u5316 \u5e74\u5ea6 \u63a8\u8fdb \u71c3\u7164\u9505\u7089 \u6cbb\u7406 \u4e25\u683c\u63a7\u5236 \u71c3\u7164 \u91cf \u5206\u7c7b\u6307\u5bfc \u5148 \u505c \u6cbb \u539f\u5219 \u59a5\u5584\u5904\u7f6e \u6563\u4e71\u6c61 \u4f01\u4e1a \u675c\u7edd \u6563\u4e71\u6c61 \u4f01\u4e1a \u5f02\u5730 \u8f6c\u79fb \u6b7b\u7070\u590d\u71c3 \u4e25\u7ba1 \u4e25\u63a7 \u63a8\u8fdb \u5de5\u4e1a\u4f01\u4e1a \u7efc\u5408\u6574\u6cbb \u52a0\u5feb \u63d0 \u6807 \u6539\u9020 \u7ec4\u7ec7 \u6392\u653e \u6325\u53d1\u6027 \u6709\u673a\u7269 \u7efc\u5408\u6cbb\u7406 \u575a\u6301\u79d1\u5b66 \u8c03\u5ea6 \u5236\u5b9a \u9519\u5cf0 \u505c\u4ea7 \u9650\u4ea7 \u65b9\u6848 \u5382 \u7b56 \u9519\u5cf0 \u8fd0\u8f93\u65b9\u6848 \u5217\u5165 \u9519\u5cf0 \u751f\u4ea7 \u4f01\u4e1a \u843d\u5b9e \u505c\u4ea7 \u9650\u4ea7 \u4f18\u5316 \u8d27\u8fd0 \u7ed3\u6784 \u63d0\u9ad8 \u94c1\u8def\u8d27\u8fd0 \u6bd4\u4f8b \u7efc\u5408\u6267\u6cd5 \u68c0\u67e5 \u8d85\u6807 \u6392\u653e \u8f66\u8f86 \u76d1\u7ba1 \u8fdd\u6cd5\u8f66\u8f86 \u5b9e\u65bd \u8054\u5408 \u5904\u7f5a \u6cb9\u54c1 \u9500\u552e \u4e13\u9879 \u6e05\u7406\u6574\u987f \u7ba1\u7406 \u4e25\u63a7 \u79f8\u79c6 \u711a\u70e7 \u626c\u5c18\u6c61\u67d3 \u7740\u529b \u9632\u8303 \u9762 \u6e90 \u6c61\u67d3 \u533a\u57df\u8054\u52a8 \u5b8c\u5584 \u91cd\u6c61\u67d3 \u5929\u6c14 \u5e94\u6025\u9884\u6848 \u52a0\u5feb \u79d1\u6280\u653b\u5173 \u7a0b\u5ea6 \u51cf\u8f7b \u91cd\u6c61\u67d3 \u5929\u6c14 \u5e26\u6765 \u4e0d\u5229 \u5f71\u54cd \u5f20\u9ad8\u4e3d \u6307\u51fa \u5404\u5730\u533a \u5404\u90e8\u95e8 \u4e09\u4e25\u4e09\u5b9e \u53d1\u626c \u9489\u9489\u5b50 \u7cbe\u795e \u7ec4\u7ec7 \u9886\u5bfc \u4fdd\u969c \u653b\u575a \u843d\u5b9e \u5230\u4f4d \u843d\u5b9e \u5730\u65b9 \u8d23\u4efb \u672a\u80fd \u7ec8 \u671f \u7a7a\u6c14\u8d28\u91cf \u6539\u5584 \u76ee\u6807 \u91cd\u70b9\u4efb\u52a1 \u8fdb\u5c55\u7f13\u6162 \u57ce\u5e02 \u533a\u53bf \u4e25\u8083 \u95ee\u8d23 \u534f\u8c03 \u914d\u5408 \u76f8\u5173\u90e8\u95e8 \u4f01\u4e1a \u804c\u8d23 \u5206\u5de5 \u505a\u597d \u5de5\u4f5c \u5f3a\u5316 \u7763\u67e5 \u6267\u6cd5 \u91cd\u70b9 \u7763\u67e5 \u5217\u5165 \u6e05\u5355 \u4e2d \u5404\u9879 \u51cf\u6392\u63aa\u65bd \u843d\u5b9e\u60c5\u51b5 \u8fdb\u5c55\u7f13\u6162 \u5730\u65b9 \u4e2d\u592e \u73af\u4fdd \u4e13\u9879 \u7763\u5bdf \u6ce8\u91cd \u5ba3\u4f20 \u5f15\u5bfc \u4e3b\u52a8 \u53d1\u5e03 \u6743\u5a01 \u4fe1\u606f \u6253\u597d \u84dd\u5929\u4fdd\u536b\u6218 \u5f20\u9ad8\u4e3d \u7d27\u5bc6 \u56e2\u7ed3 \u4e60\u8fd1\u5e73 \u540c\u5fd7 \u6838\u5fc3 \u515a\u4e2d\u592e \u7262\u56fa \u6811\u7acb \u56db\u4e2a \u610f\u8bc6 \u575a\u5b9a\u4fe1\u5fc3 \u653b\u575a\u514b\u96be \u5207\u5b9e \u6539\u5584 \u533a\u57df \u5927\u6c14\u73af\u5883 \u8d28\u91cf \u4f18\u5f02\u6210\u7ee9 \u8fce\u63a5 \u515a\u7684 \u5341\u4e5d\u5927 \u80dc\u5229 \u5317\u4eac \u5929\u6d25 \u6cb3\u5317 \u5c71\u897f \u5185\u8499\u53e4 \u5c71\u4e1c \u6cb3\u5357 \u4e03 \u7701\u533a\u5e02 \u5e02\u533a \u53bf \u6709\u5173\u90e8\u95e8 \u5355\u4f4d \u8d1f\u8d23\u540c\u5fd7 \u53c2\u52a0\u4f1a\u8bae
p19
sS'0010000000100000001000100100110000001110110001001110111111100001'
p20
V\u5341\u516b\u5927 \u4e60\u8fd1\u5e73 \u4f20\u7edf\u6587\u5316 \u4ee3\u8a00 \u5b66\u4e60 \u8fdb\u884c\u65f6 \u4e2d\u534e\u4f18\u79c0\u4f20\u7edf\u6587\u5316 \u4e60\u8fd1\u5e73 \u603b\u4e66\u8bb0 \u6cbb\u56fd \u7406\u5ff5 \u6765\u6e90 \u65b0\u534e\u793e \u5b66\u4e60 \u8fdb\u884c\u65f6 \u54c1\u724c \u680f\u76ee \u8bb2\u4e60\u6240 \u63a8\u51fa \u6587\u7ae0 \u4e3a\u60a8 \u68b3\u7406 \u89e3\u8bfb \u603b\u4e66\u8bb0 \u4f20\u7edf\u6587\u5316 \u6df1\u523b \u601d\u8003 \u7eb5\u89c8 \u4e16\u754c\u5386\u53f2 \u6c11\u65cf \u5d1b\u8d77 \u590d\u5174 \u6c11\u65cf\u7cbe\u795e \u5d1b\u8d77 \u6c11\u65cf\u6587\u5316 \u590d\u5174 \u606f\u606f\u76f8\u5173 \u4e2d\u534e\u4f18\u79c0\u4f20\u7edf\u6587\u5316 \u4e60\u8fd1\u5e73 \u603b\u4e66\u8bb0 \u6cbb\u56fd \u7406\u5ff5 \u6765\u6e90 \u5341\u516b\u5927 \u56fd\u5185 \u8003\u5bdf \u56fd\u5916 \u51fa\u8bbf \u4e60\u8fd1\u5e73 \u4e2d\u534e \u4f20\u7edf\u6587\u5316 \u5386\u53f2 \u5f71\u54cd \u610f\u4e49 \u6bcf\u4e00 \u6b21 \u6f14\u8bb2 \u4e2d\u90fd \u9971\u542b \u4e2d\u534e\u6587\u5316 \u6df1\u539a \u5e95\u8574 \u4f20\u7edf\u6587\u5316 \u591a\u91cd \u4e60\u8fd1\u5e73 \u591a\u5e74 \u6587\u660e \u53d1\u5c55 \u8fdb\u7a0b \u4e2d \u4e2d\u534e\u6c11\u65cf \u521b\u9020 \u4f20\u627f \u72ec\u6811\u4e00\u5e1c \u707f\u70c2 \u6587\u5316 \u6c11\u65cf \u4f18\u79c0 \u4f20\u7edf\u6587\u5316 \u59cb\u7ec8 \u6f5c\u79fb\u9ed8\u5316 \u5f71\u54cd \u534e\u590f\u513f\u5973 \u601d\u60f3 \u65b9\u5f0f \u884c\u4e3a\u65b9\u5f0f \u4f20\u7edf\u6587\u5316 \u91cd\u8981\u6027 \u4e60\u8fd1\u5e73 \u53cd\u590d\u5f3a\u8c03 \u4e2d\u534e\u4f18\u79c0\u4f20\u7edf\u6587\u5316 \u6700\u6df1 \u539a \u6587\u5316 \u8f6f\u5b9e\u529b \u4e2d\u56fd\u7279\u8272\u793e\u4f1a\u4e3b\u4e49 \u690d\u6839 \u6587\u5316 \u6c83\u571f \u4e3b\u6301 \u4e2d\u5171\u4e2d\u592e\u653f\u6cbb\u5c40 \u7b2c\u5341\u516b\u6b21 \u96c6\u4f53\u5b66\u4e60 \u65f6\u4e60 \u8fd1\u5e73 \u6307\u51fa \u4e24\u4e2a\u4e00\u767e\u5e74 \u594b\u6597\u76ee\u6807 \u4e2d\u534e\u6c11\u65cf \u4f1f\u5927\u590d\u5174 \u4e2d\u56fd\u68a6 \u5145\u5206\u8fd0\u7528 \u4e2d\u534e\u6c11\u65cf \u6570\u5343\u5e74 \u79ef\u7d2f \u667a\u6167 \u4e2d\u534e\u4f18\u79c0\u4f20\u7edf\u6587\u5316 \u4e2d \u601d\u60f3\u7406\u5ff5 \u9053\u5fb7\u89c4\u8303 \u90fd\u6709 \u6c38\u4e0d\u892a\u8272 \u4ef7\u503c \u6587\u827a\u5de5\u4f5c \u5ea7\u8c08\u4f1a \u4e60\u8fd1\u5e73 \u53e4\u4eba \u89c4\u77e9 \u5f00 \u751f\u9762 \u65b0\u7684 \u65f6\u4ee3 \u6761\u4ef6 \u4f20\u627f \u5f18\u626c \u4e2d\u534e\u4f18\u79c0\u4f20\u7edf\u6587\u5316 \u4e2d\u534e\u6587\u5316 \u521b\u9020\u6027 \u8f6c\u5316 \u521b\u65b0\u6027 \u53d1\u5c55 \u4e2d\u56fd \u4f20\u7edf\u6587\u5316 \u535a\u5927\u7cbe\u6df1 \u5b66\u4e60 \u601d\u60f3 \u7cbe\u534e \u6811\u7acb \u6b63\u786e \u4e16\u754c\u89c2 \u4eba\u751f\u89c2 \u4ef7\u503c\u89c2 \u6709\u76ca \u4e2d\u592e\u515a\u6821 \u5efa\u6821 80\u5468\u5e74 \u5e86\u795d\u5927\u4f1a \u66a8 \u5e74 \u6625\u5b63 \u5b66\u671f \u5f00\u5b66\u5178\u793c \u4e60\u8fd1\u5e73 \u544a\u8beb \u5b66\u5458 \u5b66\u4e60 \u5148\u5929\u4e0b\u4e4b\u5fe7\u800c\u5fe7 \u540e\u5929\u4e0b\u4e4b\u4e50\u800c\u4e50 \u653f\u6cbb \u62b1\u8d1f \u4f4d\u5351\u672a\u6562\u5fd8\u5fe7\u56fd \u82df\u5229\u56fd\u5bb6\u751f\u6b7b\u4ee5 \u5c82\u56e0\u7978\u798f\u907f\u8d8b\u4e4b \u62a5\u56fd \u60c5\u6000 \u5bcc\u8d35\u4e0d\u80fd\u6deb \u8d2b\u8d31\u4e0d\u80fd\u79fb \u5a01\u6b66\u4e0d\u80fd\u5c48 \u6d69\u7136\u6b63\u6c14 \u4eba\u751f\u81ea\u53e4\u8c01\u65e0\u6b7b \u7559\u53d6\u4e39\u5fc3\u7167\u6c57\u9752 \u97a0\u8eac\u5c3d\u7601 \u6b7b\u800c\u540e\u5df2 \u732e\u8eab\u7cbe\u795e \u4f18\u79c0 \u4f20\u7edf\u6587\u5316 \u6c11\u65cf\u7cbe\u795e \u7ee7\u627f \u53d1\u626c \u4ee5\u53f2\u4e3a\u9274 \u4e60\u8fd1\u5e73 \u601d\u8003 \u56fd\u5bb6 \u6cbb\u7406 \u4f53\u7cfb \u6cbb\u7406 \u80fd\u529b \u56fd\u5bb6 \u5386\u53f2 \u4f20\u627f \u6587\u5316\u4f20\u7edf \u5bc6\u5207\u76f8\u5173 \u89e3\u51b3 \u4e2d\u56fd \u53ea\u80fd \u5728\u4e2d\u56fd \u5927\u5730 \u63a2\u5bfb \u9002\u5408\u81ea\u5df1 \u9053\u8def \u529e\u6cd5 \u5bf9\u6b64 \u4e60\u8fd1\u5e73 \u8bf4 \u5386\u53f2 \u8001\u5e08 \u5386\u53f2 \u8fd9\u672c \u5927\u4e66 \u4e2d \u627e\u5230 \u5347\u5e73 \u4e16 \u793e\u4f1a\u53d1\u5c55 \u6210\u529f\u7ecf\u9a8c \u8870\u4e71 \u4e16 \u793e\u4f1a\u52a8\u8361 \u6df1\u523b \u6559\u8bad \u5bf9\u6b64 \u4e60\u8fd1\u5e73 \u6df1\u523b \u601d \u8003\u5b66 \u53f2 \u770b\u6210 \u8d25 \u9274 \u5f97\u5931 \u77e5 \u5174\u66ff \u5b66 \u8bd7 \u60c5 \u98de\u626c \u5fd7 \u9ad8\u6602 \u7075\u79c0 \u5b66 \u4f26\u7406 \u77e5 \u5ec9\u803b \u61c2 \u8363\u8fb1 \u8fa8 \u662f\u975e \u4e2d\u592e\u515a\u6821 \u5efa\u6821 80\u5468\u5e74 \u5e86\u795d\u5927\u4f1a \u4e60\u8fd1\u5e73 \u5f00\u95e8\u89c1\u5c71 \u5730\u9053 \u51fa \u5b66\u4e60 \u4ee5\u53f2\u4e3a\u9274 \u539f\u56e0 \u6c11\u60df\u90a6\u672c \u653f \u6c11 \u793c\u6cd5 \u5408 \u6cbb \u5fb7\u4e3b\u5211\u8f85 \u4e3a\u653f \u83ab \u5148\u4e8e \u6cbb\u56fd \u5148 \u6cbb\u540f \u4e3a\u653f\u4ee5\u5fb7 \u6b63 \u4fee\u8eab \u5c45\u5b89\u601d\u5371 \u6539 \u6613 \u66f4 \u5316 \u6f2b\u957f \u5386\u53f2\u8fdb\u7a0b \u4e2d \u4e2d\u534e\u6c11\u65cf \u521b\u9020 \u8b66\u53e5 \u683c\u8a00 \u53d1 \u6df1\u8574 \u6cbb\u56fd\u7406\u653f \u63d0\u4f9b \u6709\u76ca \u542f\u793a \u672c\u56fd \u5386\u53f2 \u4f20\u7edf\u6587\u5316 \u5386\u53f2 \u73b0\u5b9e \u8fa9\u8bc1\u5173\u7cfb \u8fd9\u662f \u56fd\u5bb6 \u73b0\u4ee3\u5316 \u8fc7\u7a0b\u4e2d \u89e3\u51b3 \u4e60\u8fd1\u5e73 \u5fd8 \u5386\u53f2 \u5f00\u8f9f \u672a\u6765 \u5584\u4e8e \u7ee7\u627f \u5584\u4e8e \u521b\u65b0 \u6cbb\u7406 \u4e2d\u56fd \u6211\u56fd \u5386\u53f2 \u4f20\u7edf\u6587\u5316 \u6211\u56fd \u53e4\u4ee3 \u6cbb\u56fd\u7406\u653f \u63a2\u7d22 \u667a\u6167 \u5bf9\u6b64 \u4e60\u8fd1\u5e73 \u7ed9\u51fa \u4e00\u5957 \u65b9\u6cd5\u8bba \u5386\u53f2\u6587\u5316 \u7279\u522b \u5148\u4eba \u4f20\u627f \u9053\u5fb7\u89c4\u8303 \u53e4\u4e3a\u4eca\u7528 \u63a8\u9648\u51fa\u65b0 \u9274\u522b \u626c\u5f03 \u4e88\u4ee5 \u7ee7\u627f \u4f20\u7edf\u6587\u5316 \u4e2d \u9002\u5408 \u8c03\u7406 \u793e\u4f1a\u5173\u7cfb \u9f13\u52b1 \u5411\u4e0a \u5411\u5584 \u5185\u5bb9 \u65f6\u4ee3 \u6761\u4ef6 \u7ee7\u627f \u53d1\u626c \u8d4b\u4e88 \u65b0\u7684 \u6db5\u4e49 \u5584\u4e8e \u5f18\u626c \u4f18\u79c0 \u4f20\u7edf\u6587\u5316 \u53d1\u5c55 \u73b0\u5b9e \u6587\u5316 \u6709\u673a \u7edf\u4e00 \u7d27\u5bc6\u7ed3\u5408 \u7ee7\u627f \u4e2d \u53d1\u5c55 \u53d1\u5c55\u4e2d \u7ee7\u627f \u4f20\u7edf\u6587\u5316 \u53e4\u4e3a\u4eca\u7528 \u4e60\u8fd1\u5e73 \u9610\u91ca \u5f53\u4eca\u4e16\u754c \u4eba\u7c7b\u6587\u660e \u7269\u8d28 \u7cbe\u795e \u5de8\u5927\u8fdb\u6b65 \u9762\u4e34 \u89e3\u51b3 \u96be\u9898 \u53d1\u73b0 \u53d1\u5c55 \u667a\u6167 \u5386\u53f2\u6587\u5316 \u79ef\u7d2f \u50a8\u5907 \u4e60\u8fd1\u5e73 \u8bf4 \u4e2d\u56fd \u4f18\u79c0 \u4f20\u7edf\u6587\u5316 \u54f2\u5b66\u601d\u60f3 \u4eba\u6587\u7cbe\u795e \u6559\u5316 \u601d\u60f3\u9053\u5fb7 \u7406\u5ff5 \u6539\u9020 \u4e16\u754c \u63d0\u4f9b \u6709\u76ca \u542f\u8fea \u6cbb\u56fd\u7406\u653f \u63d0\u4f9b \u6709\u76ca \u542f\u793a \u9053\u5fb7\u5efa\u8bbe \u63d0\u4f9b \u6709\u76ca \u542f\u53d1 \u4e2d\u56fd \u4f18\u79c0 \u4f20\u7edf\u6587\u5316 \u53e4\u4e3a\u4eca\u7528 \u4e60\u8fd1\u5e73 \u5217\u51fa \u591a\u79cd \u4f18\u79c0 \u53e4\u4ee3 \u601d\u60f3 \u9053\u6cd5\u81ea\u7136 \u5929\u4eba\u5408\u4e00 \u5929\u4e0b\u4e3a\u516c \u5927\u540c\u4e16\u754c \u81ea\u5f3a\u4e0d\u606f \u539a\u5fb7\u8f7d\u7269 \u4ee5\u6c11\u4e3a\u672c \u5b89 \u6c11\u5bcc \u6c11\u4e50 \u6c11 \u811a\u8e0f\u5b9e\u5730 \u5b9e\u4e8b\u6c42\u662f \u4ec1\u8005\u7231\u4eba \u4ee5\u5fb7 \u7acb\u4eba \u4ee5\u8bda\u5f85\u4eba \u8bb2\u4fe1\u4fee\u7766 \u6e05\u5ec9 \u4ece\u653f \u52e4\u52c9 \u5949\u516c \u601d \u60f3\u8981 \u65f6\u4ee3 \u6761\u4ef6 \u7ee7\u627f \u53d1\u626c \u8d4b\u4e88 \u65b0\u7684 \u65f6\u4ee3 \u6db5\u4e49 \u5b54\u5b50 \u521b\u7acb \u5112\u5bb6\u5b66\u8bf4 \u6b64\u57fa\u7840 \u53d1\u5c55 \u5112\u5bb6\u601d\u60f3 \u4e2d\u534e\u6587\u660e \u6df1\u523b\u5f71\u54cd \u4e2d\u56fd \u4f20\u7edf\u6587\u5316 \u7ec4\u6210\u90e8\u5206 \u4e60\u8fd1\u5e73 \u975e\u5e38\u91cd\u89c6 \u4e2d\u56fd \u4f20\u7edf\u6587\u5316 \u4f20\u627f \u53d1\u5c55 \u5e74 11\u6708 \u65e5 \u4e60\u8fd1\u5e73 \u6765\u5230 \u66f2\u961c\u5b54\u5e9c \u8003\u5bdf \u4e13\u5bb6\u5b66\u8005 \u4ee3\u8868 \u5ea7\u8c08 \u65f6\u4e60 \u8fd1\u5e73 \u7814\u7a76 \u5b54\u5b50 \u5112\u5bb6\u601d\u60f3 \u5386\u53f2\u552f\u7269\u4e3b\u4e49 \u7acb\u573a \u53e4\u4e3a\u4eca\u7528 \u53bb\u7c97\u53d6\u7cbe \u53bb\u4f2a\u5b58\u771f \u56e0\u52bf\u5229\u5bfc \u6df1\u5316 \u7814\u7a76 \u65b0\u7684 \u65f6\u4ee3 \u6761\u4ef6 \u53d1\u6325 \u4f5c\u7528 14\u5e74 \u4e94\u56db\u9752\u5e74\u8282 \u65f6\u4e60 \u8fd1\u5e73 \u6765\u5230 \u5317\u4eac\u5927\u5b66 \u4eba\u6587 \u5b66\u82d1 7\u5c81 \u8457\u540d \u54f2\u5b66\u5bb6 \u6c64\u4e00\u4ecb \u4fc3\u819d\u4ea4\u8c08 \u5112\u85cf \u7f16\u7e82 \u60c5\u51b5 \u8d5e\u626c \u4e2d\u534e\u4f18\u79c0\u4f20\u7edf\u6587\u5316 \u7ee7\u627f \u53d1\u5c55 \u521b\u65b0 \u4f5c\u51fa \u8d21\u732e \u5168\u7403 \u5b54\u5b50\u5b66\u9662 \u5efa\u7acb \u5341\u5468\u5e74 \u4e4b\u9645 \u4e60\u8fd1\u5e73 \u56fd\u5bb6 \u5730\u533a \u540d \u5b54\u5b50\u5b66\u9662 \u6821\u957f \u9662\u957f \u56de\u4fe1 \u4e2d \u6b23\u7136 \u5199\u9053 \u5b54\u5b50\u5b66\u9662 \u4e2d\u56fd \u4e16\u754c \u5e0c\u671b \u5404\u65b9 \u643a\u624b \u63a8\u52a8 \u5fc3 \u5fc3 \u4ea4\u6d41 \u5171\u521b \u4eba\u7c7b \u7f8e\u597d \u660e\u5929 \u4f55\u7528 \u4f20\u7edf\u6587\u5316 \u8bb2\u8ff0 \u4e2d\u56fd \u6545\u4e8b \u4e60\u8fd1\u5e73 \u5b9e\u8df5 \u5341\u516b\u5927 \u4e60\u8fd1\u5e73 \u5bf9\u5916 \u51fa\u8bbf \u6570\u5341\u6b21 \u65e0\u8bba\u662f \u7f72\u540d\u6587\u7ae0 \u4e3b\u65e8\u6f14\u8bb2 \u8bb2\u8bdd \u91cc \u59cb\u7ec8 \u5145\u6ee1 \u53e4\u4eca\u4e2d\u5916 \u4f18\u79c0 \u6587\u5316\u5143\u7d20 \u5e7f\u5f81\u535a \u5f15 \u7eb5\u6a2a\u636d\u9616 \u9c9c\u660e\u7279\u70b9 \u9b45\u529b \u4e60\u5f0f \u8bed\u8a00 \u7559\u4e0b \u6df1\u523b\u5370\u8c61 \u521a\u521a \u7ed3\u675f \u4e00\u5e26\u4e00\u8def \u56fd\u9645\u5408\u4f5c \u9ad8\u5cf0\u8bba\u575b \u4e60\u8fd1\u5e73 \u5f00\u573a \u4fbf \u5f15\u7528 \u5170\u4ead\u96c6\u5e8f \u4e2d \u540d\u53e5 \u7fa4\u8d24\u6bd5\u81f3 \u5c11 \u957f \u54b8 \u96c6 \u63cf\u8ff0 \u4f1a\u8bae \u76db\u51b5 \u5404\u56fd \u6765\u5bbe \u4f1a\u4e0a \u4e60\u8fd1\u5e73 \u9053 \u51fa \u4e0d\u79ef\u8dec\u6b65 \u65e0\u4ee5\u81f3\u5343\u91cc \u91d1\u5b57\u5854 \u4e00\u5757\u5757 \u77f3\u5934 \u5792 \u6210 \u4f1f\u4e1a \u975e \u4e00\u65e5\u4e4b\u529f \u4e2d\u56fd \u963f\u62c9\u4f2f \u6b27\u6d32 \u8c1a\u8bed \u540d\u53e5 \u540c\u4e00\u4e2a \u9053\u7406 \u4e00\u5e26\u4e00\u8def \u5efa\u8bbe \u7a33\u624e\u7a33\u6253 \u4e45\u4e45 \u529f \u4e00\u6b65\u4e00\u4e2a\u811a\u5370 \u63a8\u8fdb \u5b9e\u65bd \u4e00\u70b9\u4e00\u6ef4 \u6293\u51fa \u6210\u679c \u76f8\u77e5 \u8fdc\u8fd1 \u4e07\u91cc \u5c1a \u90bb \u5e74 11\u6708 \u4e60\u8fd1\u5e73 \u79d8\u9c81 \u56fd\u4f1a \u53d1\u8868 \u6f14\u8bb2\u65f6 \u5f15\u7528 \u5510\u4ee3\u8bd7\u4eba \u5f20\u4e5d\u9f84 \u9001 \u97e6 \u57ce \u674e \u5c11\u5e9c \u4e2d \u540d\u53e5 \u4e24\u56fd \u5730\u7406\u4f4d\u7f6e \u8ddd\u79bb \u9065\u8fdc \u56fd\u5bb6\u5173\u7cfb \u90bb\u5c45 \u4eb2\u5bc6 \u672a \u89c1 \u4eb2 \u4ee5\u5f80 \u4e45 \u5fd8 \u5e74 1\u6708 \u963f\u76df \u603b\u90e8 \u6f14\u8bb2\u65f6 \u4e60\u8fd1\u5e73 \u5f15\u7528 \u53e5 \u4e24\u5343\u591a\u5e74 \u524d \u7ba1\u5b50 \u8bb2\u8ff0 \u6b64\u884c \u610f\u4e49 \u9053 \u51fa \u5b5f\u5b50 \u7acb \u5929\u4e0b \u6b63\u4f4d \u884c\u5929\u4e0b \u5927\u9053 \u8fdb\u4e00\u6b65 \u9610\u91ca \u4e2d\u56fd \u4e2d\u4e1c\u653f\u7b56 \u7acb\u573a \u8a00\u7b80\u610f\u8d45 \u97ad\u8f9f\u5165\u91cc \u535a\u9ccc\u4e9a\u6d32\u8bba\u575b 15\u5e74 \u5e74 \u4f1a\u4e0a \u4e60\u8fd1\u5e73 \u8bf4 \u592b \u7269 \u4e0d\u9f50 \u7269 \u60c5 \u6587\u660e \u4f18\u52a3 \u5206 \u6709\u7279\u8272 \u8868\u8fbe \u6587\u660e \u53d1\u5c55\u6a21\u5f0f \u4ea4\u6d41 \u5bf9\u8bdd \u7ade\u4e89 \u4e2d \u53d6\u957f\u8865\u77ed \u4ea4\u6d41\u4e92\u9274 \u4e2d \u53d1\u5c55 \u6df1\u523b\u601d\u60f3 \u4e60\u8fd1\u5e73 \u5728\u8bb2\u8bdd\u4e2d \u5f15\u7528 \u53e4\u4eca\u4e2d\u5916 \u540d\u8a00 \u8b66\u53e5 \u53e4\u8bed \u8bd7\u8bcd \u770b\u4f3c \u987a\u624b \u62c8\u6765 \u65e0\u4e0d \u6070\u5230\u597d\u5904 \u753b\u9f99\u70b9\u775b \u5999 \u4e2d\u897f\u65b9 \u4f20\u7edf\u6587\u5316 \u4ea4\u878d \u4e60\u8fd1\u5e73 \u4e2d\u56fd\u667a\u6167 \u4ee3\u8a00
p21
sS'0010000000000000000000110010000000111100111101101010011101000111'
p22
V\u94f6 \u7a0e \u5408\u4f5c \u53bf\u57df \u63a8\u5f00 \u56fd\u5bb6\u7a0e\u52a1\u603b\u5c40 \u4e2d\u56fd \u94f6\u76d1\u4f1a \u8fd1\u65e5 \u8054\u5408 \u5370\u53d1 \u901a\u77e5 \u8fdb\u4e00\u6b65 \u52a0\u5927 \u94f6\u7a0e\u4e92\u52a8 \u52a9\u529b \u4f01\u4e1a\u53d1\u5c55 \u529b\u5ea6 \u5145\u5206\u53d1\u6325 \u653f\u52a1\u4fe1\u606f \u5171\u4eab \u6548\u5e94 \u652f\u6301 \u4f9b\u7ed9\u4fa7 \u7ed3\u6784\u6027 \u6539\u9769 15\u5e74 \u7a0e\u52a1\u603b\u5c40 \u94f6\u76d1\u4f1a \u521b\u9020\u6027 \u94f6\u7a0e\u4e92\u52a8 \u52a9\u529b \u5c0f\u5fae\u4f01\u4e1a \u53d1\u5c55 \u6d3b\u52a8 \u653f\u52a1\u4fe1\u606f \u5171\u4eab \u4f01\u4e1a \u63d0\u4f9b \u589e\u4fe1 \u6e20\u9053 \u7834\u89e3 \u5c0f\u5fae\u4f01\u4e1a \u878d\u8d44\u96be \u9898\u4e3a \u5b88\u4fe1 \u5c0f\u5fae\u4f01\u4e1a \u52a0 \u6cb9 \u6784\u5efa \u7a0e\u6536 \u73af\u5883 \u52a9 \u529b \u793e\u4f1a\u4fe1\u7528 \u4f53\u7cfb\u5efa\u8bbe \u6dfb \u5f69 \u636e\u7edf\u8ba1 \u5e74 \u7b2c\u4e00\u5b63\u5ea6 \u672b \u5168\u56fd \u94f6\u884c\u4e1a \u91d1\u878d\u673a\u6784 \u7d2f\u8ba1 \u5b88\u4fe1 \u4f01\u4e1a \u53d1\u653e\u8d37\u6b3e 8\u4e07 \u7b14 \u6d89\u53ca \u5c0f\u5fae\u4f01\u4e1a \u4e07\u7b14 \u5c0f\u5fae\u4f01\u4e1a \u501f\u52a9 \u94f6\u7a0e\u4e92\u52a8 \u8d37\u6b3e \u91d1\u989d \u591a\u4ebf\u5143 \u793e\u4f1a\u5404\u754c \u53d1\u5e03 \u901a\u77e5 \u5b8c\u5584 \u94f6 \u7a0e \u5408\u4f5c\u673a\u5236 \u52a0\u5927 \u94f6 \u7a0e \u4fe1\u606f\u4ea4\u6d41 \u529b\u5ea6 \u63a8\u52a8 \u94f6 \u7a0e \u5408\u4f5c \u521b\u65b0 \u914d\u5957\u673a\u5236 \u5efa\u8bbe \u63d0\u51fa \u9879 \u5177\u4f53\u63aa\u65bd \u521d\u6b65 \u642d\u5efa \u603b\u5c40 \u7701\u5c40 \u5e02\u5c40 \u5206\u5c40 \u4e09\u7ea7\u8054\u52a8 \u94f6 \u7a0e \u5408\u4f5c \u683c\u5c40 \u57fa\u7840 \u8fdb\u4e00\u6b65 \u4e0b\u6c89 \u5de5\u4f5c \u91cd\u5fc3 \u5e74 \u94f6 \u7a0e \u5408\u4f5c \u5de5\u4f5c \u673a\u5236 \u53bf\u57df \u94fa\u5f00 \u94f6\u7a0e\u4e92\u52a8 \u53d7\u60e0 \u7fa4\u4f53 \u7eb3\u7a0e\u4fe1\u7528 a\u7ea7 \u4f01\u4e1a \u62d3\u5c55 b\u7ea7 \u4f01\u4e1a \u9f13\u52b1 \u94f6\u884c\u4e1a \u91d1\u878d\u673a\u6784 \u7ecf\u8425 \u53d1\u5c55 \u878d\u5408 \u7a0e\u52a1 \u6570\u636e \u591a\u7ef4\u5ea6 \u4f01\u4e1a\u4fe1\u606f \u521b\u65b0 \u4fe1\u8d37 \u4ea7\u54c1 \u4f18\u5316 \u4fe1\u8d37 \u5ba1\u6279\u6d41\u7a0b \u5065\u5168 \u4fe1\u8d37 \u4ea7\u54c1 \u98ce\u9669 \u7ba1\u7406\u673a\u5236 \u63d0\u5347 \u91d1\u878d\u670d\u52a1 \u6548\u7387 \u9f13\u52b1 \u7a0e\u52a1\u90e8\u95e8 \u94f6\u884c\u4e1a \u91d1\u878d\u673a\u6784 \u81ea\u52a9\u670d\u52a1 \u59d4\u6258 \u670d\u52a1 \u670d\u52a1\u4f53\u9a8c \u9886\u57df \u94f6 \u7a0e \u5408\u4f5c \u901a\u77e5 \u4e0b\u53d1 \u7a0e\u52a1\u603b\u5c40 \u94f6\u76d1\u4f1a \u7ee7\u7eed\u52a0\u5f3a \u7763\u67e5 \u6307\u5bfc \u7edf\u8ba1\u5206\u6790 \u62d3\u5bbd \u5408\u4f5c \u9886\u57df \u521b\u65b0 \u589e\u503c\u670d\u52a1 \u5171 \u540c\u4e3a \u8bda\u4fe1 \u7eb3\u7a0e\u4eba \u63d0\u4f9b \u4f18\u8d28 \u7eb3\u7a0e\u670d\u52a1 \u91d1\u878d\u670d\u52a1 \u6301\u7eed \u63a8\u52a8 \u5c0f\u5fae\u4f01\u4e1a \u5065\u5eb7\u53d1\u5c55 \u7ecf\u6d4e \u7ed3\u6784\u8c03\u6574 \u8f6c\u578b\u5347\u7ea7
p23
sS'0010000000000000000000100001100000110101010101011000011101001001'
p24
V\u4e2a\u7a0e \u964d 7\u6708 \u65e5 \u8fd9\u9879 \u597d\u653f\u7b56 \u63a8\u5411 \u5168\u56fd \u65e5\u524d \u8d22\u653f\u90e8 \u7a0e\u52a1\u603b\u5c40 \u4fdd\u76d1\u4f1a \u4e09\u90e8\u95e8 \u8054\u5408 \u4e0b\u53d1 \u5546\u4e1a \u5065\u5eb7 \u4fdd\u9669\u4e2a\u4eba \u6240\u5f97\u7a0e \u8bd5\u70b9\u653f\u7b56 \u63a8\u5e7f \u5168\u56fd \u5b9e\u65bd \u901a\u77e5 \u5e74 7\u6708 \u65e5 \u6267\u884c \u6263\u9664 \u9650\u989d 0\u5143 \u5e74 0\u5143 \u6708 \u901a\u77e5 \u6307\u51fa \u653f\u7b56 \u4e3b\u8981\u5185\u5bb9 \u4e2a\u4eba\u8d2d\u4e70 \u7b26\u5408\u89c4\u5b9a \u5546\u4e1a \u5065\u5eb7 \u4fdd\u9669\u4ea7\u54c1 \u652f\u51fa \u5f53\u5e74 \u6708 \u8ba1\u7b97 \u5e94 \u7eb3\u7a0e \u6240\u5f97\u989d \u65f6 \u4e88\u4ee5 \u7a0e\u524d \u6263\u9664 \u6263\u9664 \u9650\u989d 0\u5143 \u5e74 0\u5143 \u6708 \u5355\u4f4d \u7edf\u4e00 \u5458\u5de5 \u8d2d\u4e70 \u7b26\u5408\u89c4\u5b9a \u5546\u4e1a \u5065\u5eb7 \u4fdd\u9669\u4ea7\u54c1 \u652f\u51fa \u5e94 \u8ba1\u5165 \u5458\u5de5 \u5de5\u8d44\u85aa\u91d1 \u89c6\u540c \u4e2a\u4eba\u8d2d\u4e70 \u9650\u989d \u4e88\u4ee5 \u6263\u9664 0\u5143 \u5e74 0\u5143 \u6708 \u9650\u989d \u6263\u9664 \u4e2a\u4eba\u6240\u5f97\u7a0e\u6cd5 \u51cf\u9664 \u8d39\u7528\u6807\u51c6 \u4e4b\u5916 \u6263\u9664 \u4e2a\u7a0e \u964d 7\u6708 \u65e5 \u8fd9\u9879 \u597d\u653f\u7b56 \u63a8\u5411 \u5168\u56fd \u5bf9\u8c61 \u7eb3\u7a0e \u4f01\u4e1a \u7ecf\u8425\u8005 \u653f\u7b56 \u5bf9\u8c61 \u5546\u4e1a \u5065\u5eb7\u4fdd\u9669 \u7a0e\u6536 \u4f18\u60e0\u653f\u7b56 \u7eb3\u7a0e\u4eba \u6307 \u5de5\u8d44\u85aa\u91d1 \u6240\u5f97 \u8fde\u7eed\u6027 \u52b3\u52a1\u62a5\u916c \u6240\u5f97 \u4e2a\u4f53 \u5de5\u5546\u6237 \u751f\u4ea7\u7ecf\u8425 \u6240\u5f97 \u4f01 \u4e8b\u4e1a\u5355\u4f4d \u627f\u5305 \u627f\u79df \u7ecf\u8425 \u6240\u5f97 \u4e2a\u4f53 \u5de5\u5546\u6237 \u4e1a\u4e3b \u4e2a\u4eba\u72ec\u8d44 \u4f01\u4e1a \u6295\u8d44\u8005 \u5408\u4f19\u4f01\u4e1a \u5408\u4f19 \u4eba\u548c \u627f\u5305 \u627f\u79df \u7ecf\u8425\u8005 \u4e2a\u7a0e \u964d 7\u6708 \u65e5 \u8fd9\u9879 \u597d\u653f\u7b56 \u63a8\u5411 \u5168\u56fd \u4ea7\u54c1 \u7b26\u5408 \u4e94\u4e2a \u6761\u4ef6 \u5065\u5eb7 \u4fdd\u9669\u4ea7\u54c1 \u7b26\u5408\u89c4\u5b9a \u5546\u4e1a \u5065\u5eb7 \u4fdd\u9669\u4ea7\u54c1 \u6307 \u4fdd\u9669\u516c\u53f8 \u53c2\u7167 \u7a0e\u6536\u4f18\u60e0 \u578b \u5065\u5eb7 \u4fdd\u9669\u4ea7\u54c1 \u6307\u5f15 \u6846\u67b6 \u793a\u8303 \u6761\u6b3e \u5f00\u53d1 \u7b26\u5408 \u4e0b\u5217\u6761\u4ef6 \u5065\u5eb7 \u4fdd\u9669\u4ea7\u54c1 \u5065\u5eb7 \u4fdd\u9669\u4ea7\u54c1 \u4fdd\u969c \u529f\u80fd \u8bbe\u7acb \u6700\u4f4e \u4fdd\u8bc1 \u6536\u76ca \u8d26\u6237 \u4e07\u80fd\u9669 \u65b9\u5f0f \u5305\u542b \u533b\u7597\u4fdd\u9669 \u4e2a\u4eba\u8d26\u6237 \u79ef\u7d2f \u4e24\u9879 \u8d23\u4efb \u88ab\u4fdd\u9669\u4eba \u4e2a\u4eba\u8d26\u6237 \u6295\u4fdd \u4fdd\u9669\u516c\u53f8 \u8d1f\u8d23\u7ba1\u7406 \u7ef4\u62a4 \u4fdd\u9669 \u4eba\u4e3a \u5468\u5c81 \u672a\u6ee1 \u6cd5\u5b9a \u9000\u4f11\u5e74\u9f84 \u7eb3\u7a0e\u4eba \u7fa4 \u4fdd\u9669\u516c\u53f8 \u88ab\u4fdd\u9669\u4eba \u75c5\u53f2 \u62d2\u4fdd \u4fdd\u8bc1 \u7eed\u4fdd \u533b\u7597\u4fdd\u9669 \u4fdd\u969c \u8d23\u4efb\u8303\u56f4 \u5305\u62ec \u88ab\u4fdd\u9669\u4eba \u533b\u4fdd \u6240\u5728\u5730 \u57fa\u672c\u533b\u7597 \u4fdd\u9669\u57fa\u91d1 \u652f\u4ed8 \u81ea\u4ed8 \u8d39\u7528 \u57fa\u672c\u533b\u7597 \u4fdd\u9669\u57fa\u91d1 \u652f\u4ed8 \u5916 \u8d39\u7528 \u8d39\u7528 \u62a5\u9500 \u6bd4\u4f8b \u989d\u5ea6 \u4fdd\u9669\u516c\u53f8 \u4ea7\u54c1\u7279\u70b9 \u81ea\u884c \u6b3e \u5065\u5eb7 \u4fdd\u9669\u4ea7\u54c1 \u88ab\u4fdd\u9669\u4eba \u60c5\u51b5 \u8bbe\u7f6e \u4fdd\u9669\u91d1\u989d \u4fdd\u9669\u91d1\u989d \u4e0b\u9650 \u4fdd\u76d1\u4f1a \u5065\u5eb7 \u4fdd\u9669\u4ea7\u54c1 \u4fdd\u672c\u5fae\u5229 \u539f\u5219 \u533b\u7597\u4fdd\u9669 \u7b80\u5355 \u8d54\u4ed8\u7387 \u4f4e\u4e8e \u6bd4\u4f8b \u4fdd\u9669\u516c\u53f8 \u8d54\u4ed8\u7387 \u6bd4\u4f8b \u4e4b\u95f4 \u5dee\u989d \u8fd4\u8fd8 \u88ab\u4fdd\u9669\u4eba \u4e2a\u4eba\u8d26\u6237 \u4e2a\u7a0e \u964d 7\u6708 \u65e5 \u8fd9\u9879 \u597d\u653f\u7b56 \u63a8\u5411 \u5168\u56fd \u4e09\u7c7b \u5408\u89c4 \u5065\u5eb7 \u4fdd\u9669\u4ea7\u54c1 \u9002\u7528\u4eba\u7fa4 \u76ee\u6807\u4eba\u7fa4 \u5df2\u6709 \u4fdd\u969c \u9879\u76ee \u4fdd\u969c \u9700\u6c42 \u7b26\u5408\u89c4\u5b9a \u5065\u5eb7 \u4fdd\u9669\u4ea7\u54c1 \u5171\u6709 \u4e09\u7c7b \u9002\u7528\u4e8e \u516c\u8d39\u533b\u7597 \u57fa\u672c\u533b\u7597 \u4fdd\u9669 \u62a5\u9500 \u4e2a\u4eba\u8d1f\u62c5 \u533b\u7597\u8d39\u7528 \u62a5\u9500 \u610f\u613f \u4eba\u7fa4 \u516c\u8d39\u533b\u7597 \u57fa\u672c\u533b\u7597 \u4fdd\u9669 \u62a5\u9500 \u4e2a\u4eba\u8d1f\u62c5 \u7279\u5b9a \u5927\u989d \u533b\u7597\u8d39\u7528 \u62a5\u9500 \u610f\u613f \u4eba\u7fa4 \u672a \u53c2\u52a0 \u516c\u8d39\u533b\u7597 \u57fa\u672c\u533b\u7597 \u4fdd\u9669 \u4e2a\u4eba\u8d1f\u62c5 \u533b\u7597\u8d39\u7528 \u62a5\u9500 \u610f\u613f \u4eba\u7fa4 \u7b26\u5408 \u6761\u4ef6 \u7a0e\u6536\u4f18\u60e0 \u578b \u5065\u5eb7 \u4fdd\u9669\u4ea7\u54c1 \u4fdd\u9669\u516c\u53f8 \u5e94 \u4fdd\u9669\u6cd5 \u89c4\u5b9a\u7a0b\u5e8f \u4e0a\u62a5 \u4fdd\u76d1\u4f1a \u5ba1\u6279 \u8bd5\u70b9\u653f\u7b56 7\u6708 \u65e5 \u63a8\u5e7f \u5168\u56fd \u901a\u77e5 \u6307\u51fa \u5355\u4f4d \u7edf\u4e00 \u7ec4\u7ec7 \u5458\u5de5 \u8d2d\u4e70 \u5355\u4f4d \u8d1f\u62c5 \u8d2d\u4e70 \u7b26\u5408\u89c4\u5b9a \u5546\u4e1a \u5065\u5eb7 \u4fdd\u9669\u4ea7\u54c1 \u5355\u4f4d \u8d1f\u62c5 \u5b9e\u540d \u8ba1\u5165 \u5de5\u8d44\u85aa\u91d1 \u660e\u7ec6 \u6e05\u5355 \u89c6\u540c \u4e2a\u4eba\u8d2d\u4e70 \u8d2d\u4e70 \u4ea7\u54c1 \u6b21\u6708 \u8d85\u8fc7 0\u5143 \u6708 \u6807\u51c6 \u6708 \u6263\u9664 \u4e00\u5e74 \u4fdd\u8d39 \u91d1\u989d \u8d85\u8fc7 0\u5143 \u7a0e\u524d \u6263\u9664 \u5e74\u5ea6 \u7eed \u4fdd\u65f6 \u6267\u884c \u81ea\u884c \u9000 \u4fdd\u65f6 \u5e94 \u544a\u77e5 \u6263\u7f34 \u5355\u4f4d \u76f8\u5173 \u9000\u4fdd \u4fe1\u606f \u4fdd\u9669\u516c\u53f8 \u5e94 \u4f20\u9012 \u7a0e\u52a1\u673a\u5173 \u4e2a\u7a0e \u964d 7\u6708 \u65e5 \u8fd9\u9879 \u597d\u653f\u7b56 \u63a8\u5411 \u5168\u56fd \u5de5\u8d44\u85aa\u91d1 \u6240\u5f97 \u8fde\u7eed\u6027 \u52b3\u52a1\u62a5\u916c \u6240\u5f97 \u81ea\u884c \u8d2d\u4e70 \u7b26\u5408\u89c4\u5b9a \u5546\u4e1a \u5065\u5eb7 \u4fdd\u9669\u4ea7\u54c1 \u4ee3\u6263\u4ee3\u7f34 \u5355\u4f4d \u63d0\u4f9b \u4fdd\u5355 \u51ed\u8bc1 \u6263\u7f34 \u5355\u4f4d \u81ea\u4e2a \u63d0\u4ea4 \u4fdd\u5355 \u51ed\u8bc1 \u6b21\u6708 \u8d85\u8fc7 0\u5143 \u6708 \u6807\u51c6 \u6708 \u6263\u9664 \u4e00\u5e74 \u4fdd\u8d39 \u91d1\u989d \u8d85\u8fc7 0\u5143 \u7a0e\u524d \u6263\u9664 \u5e74\u5ea6 \u7eed \u4fdd\u65f6 \u6267\u884c \u81ea\u884c \u9000 \u4fdd\u65f6 \u5e94 \u544a\u77e5 \u6263\u7f34 \u4e49\u52a1\u4eba \u4e2a\u4f53 \u5de5\u5546\u6237 \u4e1a\u4e3b \u4f01 \u4e8b\u4e1a\u5355\u4f4d \u627f\u5305 \u627f\u79df \u7ecf\u8425\u8005 \u4e2a\u4eba\u72ec\u8d44 \u5408\u4f19\u4f01\u4e1a \u6295\u8d44\u8005 \u81ea\u884c \u8d2d\u4e70 \u7b26\u5408\u6761\u4ef6 \u5546\u4e1a \u5065\u5eb7 \u4fdd\u9669\u4ea7\u54c1 \u8d85\u8fc7 0\u5143 \u5e74 \u6807\u51c6 \u6263\u9664 \u4e00\u5e74 \u4fdd\u8d39 \u91d1\u989d \u8d85\u8fc7 0\u5143 \u7a0e\u524d \u6263\u9664 \u5e74\u5ea6 \u7eed \u4fdd\u65f6 \u6267\u884c \u901a\u77e5 \u5e74 7\u6708 \u65e5 \u6267\u884c \u5e74 1\u6708 \u65e5 \u5546\u4e1a \u5065\u5eb7 \u4fdd\u9669\u4e2a\u4eba \u6240\u5f97\u7a0e \u653f\u7b56 \u8bd5\u70b9 \u5730\u533a \u5e74 7\u6708 \u65e5 \u901a\u77e5 \u653f\u7b56 \u6267\u884c
p25
sS'0000000000000000000000101100000110010110111011101010111110110000'
p26
V\u674e\u514b\u5f3a \u4f1a\u89c1 \u7f8e\u56fd \u5bc6\u6b47\u6839\u5dde \u5dde\u957f \u65af\u5948\u5fb7 \u65b0\u534e\u793e \u5929\u6d25 8\u6708 \u65e5\u7535 \u8bb0\u8005 \u5f20\u534e \u8fce \u5f20\u5efa\u65b0 \u8fd1\u65e5 \u56fd\u52a1\u9662 \u7b2c\u4e00 \u7763\u67e5\u7ec4 \u5929\u6d25 \u7763\u67e5 \u671f\u95f4 \u65b0\u53d1\u73b0 \u5317\u8fb0\u533a \u4fca \u8bda \u65e0\u7f1d\u94a2\u7ba1 \u6709\u9650\u516c\u53f8 \u6052 \u666f \u518d\u751f \u5408\u91d1\u6750\u6599 \u6709\u9650\u516c\u53f8 \u5bb6 \u5730\u6761\u94a2 \u751f\u4ea7\u4f01\u4e1a \u8bb0\u8005 \u65e5 \u5929\u6d25\u5e02 \u653f\u5e9c \u6b21 \u5e38\u52a1\u4f1a\u8bae \u83b7\u6089 \u5929\u6d25 \u5bb6 \u5730\u6761\u94a2 \u4f01\u4e1a \u751f\u4ea7\u8bbe\u5907 \u5f3a\u5236\u62c6\u9664 \u5de5\u4f5c \u5929\u6d25\u5e02 \u5de5\u4fe1\u59d4 \u4e3b\u4efb \u5c39 \u7ee7 \u8f89 \u4ecb\u7ecd \u5929\u6d25\u5e02 \u5171 \u6392 \u67e5\u51fa \u5bb6 \u5730\u6761\u94a2 \u4f01\u4e1a \u5bb6\u4f01\u4e1a \u5916 \u5bb6 \u5730\u6761\u94a2 \u4f01\u4e1a \u56fd\u5bb6\u89c4\u5b9a \u65f6\u9650 \u56db\u4e2a \u62c6\u9664 6\u6708 \u5e95 \u62c6\u9664 \u4e2d\u9891\u7089 \u53d8\u538b\u5668 \u9664\u5c18 \u7f69 \u5e73\u53f0 \u8f68\u9053 \u8bbe\u5907 \u73b0\u573a \u9a8c\u6536 \u540e\u8fdb \u884c \u516c\u793a 7\u6708 \u65e5 \u56fd\u52a1\u9662\u7763\u67e5\u7ec4 \u5929\u6d25 \u901a\u62a5 \u65b0\u53d1\u73b0 \u5bb6 \u5730\u6761\u94a2 \u4f01\u4e1a \u540e\u5929 \u6d25\u5e02 \u9ad8\u5ea6\u91cd\u89c6 \u8fde\u591c \u53ec\u5f00\u4f1a\u8bae \u90e8\u7f72 \u76f8\u5173 \u5de5\u4f5c \u7ec4\u7ec7 \u4e3a\u671f \u4e00\u5468 \u5168\u5e02 \u5730\u6761\u94a2 \u96c6\u4e2d\u6574\u6cbb \u5de5\u4f5c \u5171\u8ba1 \u6392 \u67e5\u51fa \u5bb6\u4f01\u4e1a \u53f0\u4e2d \u5de5\u9891 \u7089 \u672a\u53d1\u73b0 \u5730\u6761\u94a2 \u4f01\u4e1a \u8bbe\u5907 \u5c39 \u7ee7 \u8f89 \u8bf4 \u5c39 \u7ee7 \u8f89 \u900f\u9732 \u4e25\u8083 \u8ffd\u8d23 \u95ee\u8d23 \u5929\u6d25\u5e02 \u53d6\u7f14 \u5730\u6761\u94a2 \u4e13\u9879 \u5de5\u4f5c \u534f\u8c03\u5c0f\u7ec4 \u5efa\u8bae \u5e02\u653f\u5e9c \u5317\u8fb0\u533a \u9547 \u533a\u5c5e \u90e8\u95e8 \u540d \u5c40\u7ea7 \u540d \u5904\u7ea7 \u5171 \u540d \u515a\u653f\u5e72\u90e8 \u95ee\u8d23 \u516c\u5b89\u90e8\u95e8 \u8fdd\u89c4 \u751f\u4ea7\u4f01\u4e1a \u4f9d\u6cd5 \u5f00\u5c55\u8c03\u67e5 \u4f9d\u6cd5 \u4f9d\u89c4 \u4f01\u4e1a \u4e25\u5389\u67e5\u5904 \u5c39 \u7ee7 \u8f89 \u5929\u6d25 \u8ba4\u771f\u5438\u53d6 \u7ecf\u9a8c\u6559\u8bad \u5c42\u5c42\u4f20\u5bfc\u538b\u529b \u5f3a\u5316 \u533a\u9547 \u5c5e\u5730 \u8d23\u4efb \u538b\u5b9e \u4f01\u4e1a \u4e3b\u4f53\u8d23\u4efb \u843d\u5b9e \u90e8\u95e8 \u76d1\u7ba1\u8d23\u4efb \u5065\u5168 \u4e3e\u62a5 \u6838\u67e5 \u673a\u5236 \u5f3a\u5316 \u8d23\u4efb\u8ffd\u7a76 \u591a\u4e2a \u5165\u624b \u91cd\u62f3 \u6574\u6cbb \u53d6\u7f14 \u5730\u6761\u94a2 \u4f01\u4e1a \u6b7b\u7070\u590d\u71c3
p27
sS'0010000000000000000000101111001010110010010001010111101100000101'
p28
V\u65b0\u534e\u65f6\u8bc4 \u65f6\u4ee3 \u540c\u5fc3 \u540c\u5411 \u9752\u6625\u7efd\u653e \u5149\u8292 \u65b0\u534e\u793e \u5317\u4eac 5\u6708 \u65e5\u7535 \u9898 \u65f6\u4ee3 \u540c\u5fc3 \u540c\u5411 \u9752\u6625\u7efd\u653e \u5149\u8292 \u65b0\u534e\u793e \u8bb0\u8005 \u95eb \u7965 \u5cad \u4e94\u56db\u9752\u5e74\u8282 \u6765\u4e34\u4e4b\u9645 \u4e60\u8fd1\u5e73 \u603b\u4e66\u8bb0 \u5728\u4e2d\u56fd \u653f\u6cd5\u5927\u5b66 \u8003\u5bdf \u65f6 \u6df1\u60c5 \u5bc4\u8bed \u5f53\u4ee3 \u9752\u5e74 \u6811\u7acb \u65f6\u4ee3 \u4e3b\u9898 \u540c\u5fc3 \u540c\u5411 \u7406\u60f3\u4fe1\u5ff5 \u52c7\u4e8e \u62c5\u5f53 \u65f6\u4ee3 \u8d4b\u4e88 \u5386\u53f2 \u8d23\u4efb \u52b1\u5fd7 \u52e4\u5b66 \u523b\u82e6 \u78e8\u70bc \u6fc0\u60c5 \u594b\u6597 \u4e2d \u7efd\u653e \u9752\u6625 \u5149\u8292 \u5065\u5eb7\u6210\u957f \u9752\u6625 \u4e00\u751f\u4e00\u6b21 \u6c5f\u6cb3 \u5954\u6d41 \u6c38\u8fdc\u5411\u524d \u4e94\u56db\u9752\u5e74\u8282 \u6765\u4e34\u4e4b\u9645 \u9752\u6625 \u81f4\u656c \u5e76\u4ee5 \u9752\u6625 \u540d\u4e49 \u627f\u8bfa \u7262\u8bb0 \u4e60\u8fd1\u5e73 \u603b\u4e66\u8bb0 \u5631\u6258 \u628a\u63e1 \u65f6\u4ee3 \u65b9\u5411 \u52c7 \u62c5 \u7956\u56fd \u91cd\u4efb \u77e5\u884c\u5408\u4e00 \u594b\u529b\u62fc\u640f \u5706\u68a6 \u9752\u6625\u65f6\u4ee3 \u4f7f\u547d \u4eba\u751f \u9645\u9047 \u4ea4\u6c47 \u6210 \u9752\u6625 \u5750\u6807 \u8fd9\u662f \u9752\u5e74\u4eba \u8c0b\u5212 \u4eba\u751f \u5f00\u521b\u672a\u6765 \u8d77\u70b9 \u9752\u6625 \u5e78\u8fd0 \u83ab\u8fc7\u4e8e \u76ee\u6807 \u56fd\u5bb6\u547d\u8fd0 \u540c\u5411 \u884c \u65f6\u4ee3 \u76ee\u6807 \u5f53\u4eca \u4e2d\u56fd \u9c9c\u660e \u65f6\u4ee3 \u4e3b\u9898 \u4e24\u4e2a\u4e00\u767e\u5e74 \u594b\u6597\u76ee\u6807 \u4e2d\u534e\u6c11\u65cf \u4f1f\u5927\u590d\u5174 \u4e2d\u56fd\u68a6 \u6ce8\u5b9a \u5f53\u4ee3 \u6bcf\u4f4d \u9752\u5e74 \u4eba\u751f \u5750\u6807 \u610f\u4e49 \u975e\u51e1 \u65e2\u6709 \u56fd\u5bb6 \u4eba\u624d \u6e34\u6c42 \u66f4 \u5386\u53f2 \u9752\u5e74 \u671f\u5f85 \u9752\u5e74 \u5174 \u56fd\u5bb6 \u5174 \u9752\u5e74 \u5f3a \u56fd\u5bb6 \u5f3a \u771f\u5207 \u73b0\u5b9e \u9700\u6c42 \u662f\u4ece \u6df1\u8fdc \u5386\u53f2\u610f\u4e49 \u5f53\u4ee3 \u5e7f\u5927\u9752\u5e74 \u751f \u9022 \u5176\u65f6 \u8eac\u9022 \u76db\u4e16 \u9752\u6625 \u4ef7\u503c \u83ab\u8fc7\u4e8e \u4e2a\u4eba\u6210\u957f \u56fd\u5bb6 \u4ea4\u76f8\u8f89\u6620 \u7d27\u8ddf \u65f6\u4ee3 \u7825\u783a \u524d\u884c \u62c5\u5f53 \u8d23\u4efb \u594b\u53d1\u6709\u4e3a \u6211\u56fd \u9752\u5e74 \u5149\u8363\u4f20\u7edf \u515a\u548c\u4eba\u6c11 \u5e7f\u5927\u9752\u5e74 \u6bb7\u5207\u671f\u671b \u5e7f\u5927\u9752\u5e74 \u52c7\u4e8e \u627f\u62c5 \u5386\u53f2\u4f7f\u547d \u81ea\u89c9 \u515a\u548c\u4eba\u6c11 \u63d0\u9ad8 \u56fd\u5bb6 \u524d\u9014 \u6c11\u65cf \u547d\u8fd0 \u4eba\u6c11 \u5e78\u798f \u7d27\u5bc6\u7ed3\u5408 \u4e3b\u52a8 \u53d1\u5c55 \u878d\u5165 \u6c11\u65cf\u590d\u5174 \u5386\u53f2\u6f6e\u6d41 \u4e2d \u9752\u6625\u5e74\u534e \u7115 \u53d1\u51fa \u7eda\u4e3d \u5149\u5f69 \u9752\u6625 \u5f00\u7aef \u83ab\u8fc7\u4e8e \u6263\u597d \u4eba\u751f \u7b2c\u4e00\u7c92 \u6263\u5b50 \u9752\u5e74 \u6210\u957f \u594b\u6597 \u4e2d\u4f1a \u6536\u83b7 \u6210\u529f \u559c\u60a6 \u4f1a\u9762 \u56f0\u96be \u538b\u529b \u6b63\u786e\u5bf9\u5f85 \u6210\u8d25\u5f97\u5931 \u5904 \u4f18 \u517b \u5c0a \u53d7\u632b \u77ed \u5fd7 \u987a\u5883 \u9006\u5883 \u4eba\u751f \u8d22\u5bcc \u4eba\u751f \u5305\u88b1 \u9752\u5e74 \u6811\u7acb \u6b63\u786e \u4e16\u754c\u89c2 \u4eba\u751f\u89c2 \u4ef7\u503c\u89c2 \u53ef\u8d35 \u9752\u6625 \u65f6\u5149 \u8f9b\u52e4\u8015\u8018 \u8bfb\u4e07\u5377\u4e66 \u884c\u4e07\u91cc\u8def \u771f\u5584\u7f8e \u96d5\u7422 \u57f9\u517b \u9ad8\u6d01 \u64cd\u884c \u7eaf\u6734 \u60c5\u611f \u52aa\u529b \u9ad8\u5c1a \u6c11\u65cf \u4f1f\u5927\u590d\u5174 \u5149\u8363 \u4f7f\u547d\u53ec\u5524 \u5e7f\u5927\u9752\u5e74 \u575a\u5b9a \u8ddf\u515a\u8d70 \u521d\u5fc3 \u6811\u7acb \u4e3a\u4eba \u751f \u822a\u5411 \u73cd\u60dc \u97f6\u534e \u6f5c\u5fc3 \u8bfb\u4e66 \u654f \u6c42\u77e5 \u5fb7\u667a\u4f53\u7f8e \u5168\u9762\u53d1\u5c55 \u7956\u56fd \u4eba\u6c11 \u65bd\u5c55\u624d\u534e \u4e2d \u4eba\u751f\u4ef7\u503c
p29
sS'0010000000000000000000100110010110010001000101110100001001111011'
p30
V\u4e60\u4e3b\u5e2d \u6279\u51c6 \u7ef4\u62a4 \u6838\u5fc3 \u542c\u4ece\u6307\u6325 \u4e3b\u9898 \u6559\u80b2\u6d3b\u52a8 \u610f\u89c1 \u65b0\u534e\u793e \u5317\u4eac 3\u6708 \u65e5\u7535 \u4e2d\u592e\u519b\u59d4\u4e3b\u5e2d \u4e60\u8fd1\u5e73 \u6279\u51c6 \u4e2d\u592e\u519b\u59d4 \u529e\u516c\u5385 \u8fd1\u65e5 \u5370\u53d1 \u7ef4\u62a4 \u6838\u5fc3 \u542c\u4ece\u6307\u6325 \u4e3b\u9898 \u6559\u80b2\u6d3b\u52a8 \u63a8\u8fdb \u4e24\u5b66\u4e00\u505a \u5b66\u4e60 \u6559\u80b2 \u5e38\u6001\u5316 \u5236\u5ea6\u5316 \u610f\u89c1 \u610f\u89c1 \u6307\u51fa \u786e\u7acb \u7ef4\u62a4 \u4e60\u8fd1\u5e73 \u603b\u4e66\u8bb0 \u4e3a\u515a \u4e2d\u592e \u6838\u5fc3 \u5168 \u515a\u7684 \u6838\u5fc3 \u6839\u672c\u6027 \u65b9\u5411\u6027 \u5168\u5c40\u6027 \u5173\u4e4e \u65d7\u5e1c \u9053\u8def \u65b9\u5411 \u5173\u4e4e \u515a \u8fd0 \u56fd\u8109 \u519b\u9b42 \u505a\u597d \u8fce\u63a5 \u515a\u7684 \u5341\u4e5d\u5927 \u601d\u60f3\u653f\u6cbb \u5e94\u5bf9 \u610f\u8bc6\u5f62\u6001 \u9886\u57df \u5c16\u9510 \u6597\u4e89 \u6df1\u5316 \u56fd\u9632 \u519b\u961f\u6539\u9769 \u8fdb\u4e00\u6b65 \u7edf\u4e00 \u601d\u60f3 \u51dd\u805a \u610f\u5fd7 \u7ef4\u62a4 \u6838\u5fc3 \u542c\u4ece\u6307\u6325 \u4e3b\u9898 \u6559\u80b2\u6d3b\u52a8 \u63a8\u8fdb \u4e24\u5b66\u4e00\u505a \u5b66\u4e60 \u6559\u80b2 \u5e38\u6001\u5316 \u5236\u5ea6\u5316 \u5fc5\u987b\u7262\u7262\u628a\u63e1 \u7ef4\u62a4 \u6838\u5fc3 \u542c\u4ece\u6307\u6325 \u653f\u6cbb \u7ef4\u62a4 \u6743\u5a01 \u7ef4\u62a4 \u6838\u5fc3 \u7ef4\u62a4 \u8d2f\u5f7b \u519b\u59d4\u4e3b\u5e2d \u8d1f\u8d23\u5236 \u6293\u597d \u5b66\u4e60 \u6559\u80b2 \u5b9e\u8df5 \u9524\u70bc \u7ef4\u62a4 \u6838\u5fc3 \u9ad8\u5ea6 \u601d\u60f3 \u81ea\u89c9 \u653f\u6cbb \u81ea\u89c9 \u81ea\u89c9 \u7740\u529b \u575a\u5b9a \u4e60\u4e3b\u5e2d \u7cfb\u5217 \u91cd\u8981\u8bb2\u8bdd \u653f\u6cbb\u4fe1\u4ef0 \u7740\u529b \u9524\u70bc \u515a \u7edd\u5bf9\u5fe0\u8bda \u653f\u6cbb\u54c1\u683c \u7740\u529b \u63a8\u52a8 \u515a\u4e2d\u592e \u4e2d\u592e\u519b\u59d4 \u4e60\u4e3b\u5e2d \u51b3\u7b56 \u6307\u793a \u8d2f\u5f7b\u843d\u5b9e \u5f15\u5bfc \u5b98\u5175 \u5f3a\u5316 \u56db\u4e2a \u610f\u8bc6 \u575a\u5b9a \u56db\u4e2a \u81ea\u4fe1 \u60c5\u51b5 \u7ef4\u62a4 \u515a\u4e2d\u592e \u4e60\u4e3b\u5e2d \u6743\u5a01 \u540c\u515a \u4e2d\u592e \u4e2d\u592e\u519b\u59d4 \u4e60\u4e3b\u5e2d \u9ad8\u5ea6\u4e00\u81f4 \u542c\u4ece \u515a\u4e2d\u592e \u4e2d\u592e\u519b\u59d4 \u4e60\u4e3b\u5e2d \u6307\u6325 \u610f\u89c1 \u7ef4\u62a4 \u6838\u5fc3 \u542c\u4ece\u6307\u6325 \u4e3b\u9898 \u6559\u80b2\u6d3b\u52a8 \u56f4\u7ed5 \u8fce\u63a5 \u515a\u7684 \u5341\u4e5d\u5927 \u80dc\u5229 \u5b66\u4e60\u8d2f\u5f7b \u515a\u7684 \u5341\u4e5d\u5927 \u7cbe\u795e \u8fd9\u6761 \u4e3b\u7ebf \u5fe0\u8bda \u6838\u5fc3 \u62e5\u6234 \u6838\u5fc3 \u7ef4\u62a4 \u6838\u5fc3 \u7528\u597d \u8d5e\u9882 \u65b0\u6210\u5c31 \u5c55\u793a \u65b0\u9762\u8c8c \u8f7d\u4f53 \u6293\u4f4f \u52a9\u529b \u6539\u9769 \u5f3a\u519b \u52a9\u63a8 \u5907\u6218 \u6253\u4ed7 \u843d\u70b9 \u5f15\u5bfc \u5b98\u5175 \u8fdb\u4e00\u6b65 \u94f8\u7262 \u5fe0\u8bda \u54c1\u683c \u805a\u529b \u5f3a\u519b \u5174 \u519b \u6df1\u523b\u7406\u89e3 \u786e\u7acb \u7ef4\u62a4 \u4e60\u8fd1\u5e73 \u603b\u4e66\u8bb0 \u6838\u5fc3 \u5730\u4f4d \u6df1\u8fdc \u610f\u4e49 \u8d5e\u9882 \u515a\u7684 \u5341\u516b\u5927 \u4e0d\u5e73\u51e1 \u6210\u5c31 \u5f18\u626c \u5149\u8363\u4f20\u7edf \u4f20\u627f \u7ea2\u8272\u57fa\u56e0 \u6295\u8eab \u6539\u9769 \u5f3a\u519b \u5b9e\u8df5 \u8fdb\u4e00\u6b65 \u51dd\u805a \u5f3a\u56fd \u5f3a\u519b \u5f3a\u5927 \u610f\u5fd7 \u529b\u91cf \u4e0a\u534a\u5e74 \u91cd\u70b9 \u56f4\u7ed5 \u575a\u5b9a \u7ef4\u62a4 \u6838\u5fc3 \u94f8\u7262 \u5f3a\u519b \u9b42 \u62e5\u62a4 \u652f\u6301 \u6539\u9769 \u6295\u8eab \u5f3a\u519b \u5b9e\u8df5 \u7b49\u5206 \u4e13\u9898 \u6293\u597d \u5b66\u4e60 \u6559\u80b2 7\u6708 \u5341\u4e5d\u5927 \u524d \u91cd\u70b9 \u6293\u597d \u5341\u516b\u5927 \u515a \u56fd\u5bb6 \u519b\u961f\u5efa\u8bbe \u53d1\u5c55 \u5de8\u5927\u6210\u5c31 \u5b66\u4e60 \u6559\u80b2 \u5341\u4e5d\u5927 \u91cd\u70b9 \u6293\u597d \u5927\u4f1a \u7cbe\u795e \u5b66\u4e60\u5ba3\u4f20 \u8d2f\u5f7b \u6ce8\u91cd \u5b9e\u8df5\u6d3b\u52a8 \u7275\u5f15 \u5168\u519b \u7edf\u4e00 \u5b66 \u5f3a\u519b \u601d\u60f3 \u8bb2 \u5f3a\u519b \u6545\u4e8b \u5e72 \u5f3a\u519b \u4e8b\u4e1a \u7fa4\u4f17\u6027 \u4e3b\u9898 \u5b9e\u8df5\u6d3b\u52a8 \u6811\u7acb \u6559\u80b2\u89c2\u5ff5 \u7406\u8bba \u8206\u8bba \u6559\u80b2 \u5ba3\u4f20 \u6346 \u5728\u4e00\u8d77 \u6293 \u4e3b\u9898 \u7edf\u9886 \u5404\u9879 \u6559\u80b2 \u594f\u54cd \u5e74\u5ea6 \u6559\u80b2 \u4e3b\u65cb\u5f8b \u610f\u89c1 \u63a8\u8fdb \u4e24\u5b66\u4e00\u505a \u5b66\u4e60 \u6559\u80b2 \u5e38\u6001\u5316 \u5236\u5ea6\u5316 \u8d2f\u5f7b\u843d\u5b9e \u515a\u7684 \u5341\u516b\u5c4a\u516d\u4e2d\u5168\u4f1a \u7cbe\u795e \u6301\u7eed \u63a8\u52a8 \u4ece\u4e25\u6cbb\u515a \u5173\u952e \u57fa\u5c42 \u5ef6\u4f38 \u5f3a\u519b \u76ee\u6807 \u5efa\u8bbe \u4e16\u754c\u4e00\u6d41 \u519b\u961f \u63d0\u4f9b \u575a\u5f3a \u7ec4\u7ec7 \u4fdd\u8bc1 \u878d\u5165 \u65e5\u5e38 \u6293 \u95ee\u9898\u5bfc\u5411 \u6ce8\u91cd \u7387 \u5f3a\u5316 \u5206\u7c7b\u6307\u5bfc \u6fc0\u53d1 \u57fa\u5c42 \u6d3b\u529b \u5e38\u6293\u4e0d\u61c8 \u8bb2\u6c42 \u5b9e\u9645\u6548\u679c \u7a81\u51fa\u91cd\u70b9 \u5185\u5bb9 \u6293 \u5b66\u4e60 \u719f\u77e5 \u7262\u8bb0 \u515a\u7ae0 \u515a\u89c4 \u5b66 \u6df1 \u609f \u900f \u7cfb\u5217 \u8bb2\u8bdd \u77e5 \u5e94\u4f1a \u5e94 \u505a \u5185\u5bb9 \u5b66\u4e60 \u65b0\u7684 \u5185\u5bb9 \u8ddf\u8fdb \u5b66\u4e60 \u5355\u4f4d \u9886\u57df \u672c\u804c \u5c97\u4f4d \u7d27\u5bc6 \u5185\u5bb9 \u7cbe\u7814 \u5b66\u4e60 \u6559\u80b2\u5f15\u5bfc \u5e7f\u5927\u515a\u5458 \u8df5\u884c \u56db\u8bb2\u56db\u6709 \u6807\u51c6 \u627f\u8bfa \u8df5\u8bfa \u5e38\u6001 \u8f7d\u4f53 \u6293\u624b \u653f\u6cbb \u5408\u683c \u6267\u884c \u7eaa\u5f8b \u5408\u683c \u54c1\u5fb7 \u5408\u683c \u53d1\u6325\u4f5c\u7528 \u5408\u683c \u5bf9\u7167 \u7cfb\u5217 \u8bb2\u8bdd \u5bf9\u7167 \u515a\u7ae0 \u515a\u89c4 \u5bf9\u7167 \u5148\u8fdb\u5178\u578b \u533a\u5206 \u515a\u5458 \u56e2\u7ea7 \u515a\u59d4 \u57fa\u5c42 \u515a\u7ec4\u7ec7 \u8054\u7cfb\u5b9e\u9645 \u67e5\u627e \u89e3\u51b3\u95ee\u9898 \u7ec4\u7ec7\u751f\u6d3b \u67e5\u627e \u89e3\u51b3\u95ee\u9898 \u91cd\u8981\u9014\u5f84 \u6293\u65e9\u6293\u5c0f \u9632\u5fae\u675c\u6e10 \u9886\u5bfc\u5e72\u90e8 \u7279\u522b \u9ad8\u7ea7\u5e72\u90e8 \u5b66 \u9ad8\u6807\u51c6 \u505a\u7684 \u4e25\u8981\u6c42 \u5e26\u5934 \u505a \u5408\u683c \u515a\u5458 \u5408\u683c \u9886\u5bfc\u5e72\u90e8 \u53d1\u6325 \u793a\u8303 \u5f15\u9886 \u4f5c\u7528 \u56e2\u7ea7 \u515a\u59d4 \u73ed\u5b50\u6210\u5458 \u53c2\u52a0 \u5e74\u5ea6 \u4e24\u5b66\u4e00\u505a \u5b66\u4e60 \u6559\u80b2 \u4f5c\u51fa \u90e8\u7f72 \u5b89\u6392 \u7528\u597d \u4e09\u4f1a \u8bfe \u4f9d\u6258 \u4e24\u5b66\u4e00\u505a \u5b66\u4e60 \u6559\u80b2 \u7eb3\u5165 \u7ec4\u7ec7\u751f\u6d3b \u4e00\u4f53 \u63a8\u8fdb \u843d\u5b9e \u5236\u5ea6 \u4fdd\u8bc1 \u5b66\u4e60 \u6559\u80b2 \u5e38\u6001\u5316 \u515a\u652f\u90e8 \u5efa\u8bbe \u6700\u91cd\u8981 \u57fa\u672c\u5efa\u8bbe \u9009\u597d \u914d \u5f3a \u652f\u90e8 \u73ed\u5b50 \u4e66\u8bb0 \u961f\u4f0d \u57f9\u8bad \u641e\u597d \u6307\u5bfc \u5e2e\u5e26 \u5207\u5b9e \u515a\u652f\u90e8 \u6253\u9020 \u6559\u80b2 \u515a\u5458 \u5b66\u6821 \u56e2\u7ed3 \u5b98\u5175 \u6838\u5fc3 \u653b\u575a\u514b\u96be \u5821\u5792 \u91cd\u70b9 \u6293\u597d \u6539\u9769 \u4e2d \u5065\u5168 \u515a\u7ec4\u7ec7 \u60c5\u51b5 \u515a\u5458 \u7ec4\u7ec7\u5173\u7cfb \u53d1\u5c55\u515a\u5458 \u5de5\u4f5c \u515a\u8d39 \u6536\u7f34 \u7ba1\u7406\u5de5\u4f5c \u56db\u4e2a \u68c0\u67e5 \u6ce8\u91cd \u515a\u5efa \u5e26\u56e2\u5efa \u5171\u9752\u56e2 \u7ec4\u7ec7 \u56e2\u5458\u9752\u5e74 \u4e2d \u5b66\u4e60 \u603b\u4e66\u8bb0 \u8bb2\u8bdd \u505a \u5408\u683c \u5171\u9752\u56e2\u5458 \u6559\u80b2\u5b9e\u8df5 \u610f\u89c1 \u7ad9\u5728 \u653f\u6cbb \u5168\u5c40 \u9ad8\u5ea6 \u5207\u5b9e \u7ef4\u62a4 \u6838\u5fc3 \u542c\u4ece\u6307\u6325 \u653f\u6cbb \u8d23\u4efb\u611f \u4e3b\u9898 \u6559\u80b2\u6d3b\u52a8 \u63a8\u8fdb \u4e24\u5b66\u4e00\u505a \u5b66\u4e60 \u6559\u80b2 \u5e38\u6001\u5316 \u5236\u5ea6\u5316 \u653f\u6cbb\u4efb\u52a1 \u6293\u7d27\u6293\u597d \u6293\u51fa \u6210\u6548 \u4e0b\u6c89 \u6559\u80b2 \u91cd\u5fc3 \u6539\u8fdb \u6559\u80b2\u6307\u5bfc \u6df1\u5165\u7814\u7a76 \u63a2\u7d22 \u65b0\u4f53\u5236 \u7ec4\u6559 \u6a21\u5f0f \u7f51\u7edc\u65f6\u4ee3 \u6559\u80b2\u65b9\u6cd5 \u52a8\u6001 \u6761\u4ef6 \u4e2d \u6559\u80b2 \u843d\u5b9e \u6293\u4f4f \u73b0\u5b9e\u95ee\u9898 \u6d3b \u601d\u60f3 \u7cbe\u51c6\u53d1\u529b \u65b0\u7684 \u9886\u5bfc \u6307\u6325 \u4f53\u5236 \u65b0\u7684 \u89c4\u6a21 \u7ed3\u6784 \u529b\u91cf \u7f16\u6210 \u4fe1\u606f\u7f51\u7edc \u521b\u65b0 \u589e\u957f\u70b9 \u7740\u529b \u63a8\u8fdb \u6559\u80b2 \u601d\u7ef4 \u7406\u5ff5 \u8fd0\u884c \u6a21\u5f0f \u6307\u5bfc \u65b9\u5f0f \u65b9\u6cd5 \u624b\u6bb5 \u5236\u5ea6 \u673a\u5236 \u521b\u65b0 \u7aef\u6b63 \u5b66\u98ce \u6559 \u98ce \u53d1\u6325 \u771f\u7406 \u771f\u60c5 \u771f\u5b9e \u529b\u91cf \u7ea0\u6cbb \u5047 \u865a\u7a7a \u8bf4 \u505a \u8131\u8282 \u4e0d\u63a5\u5730\u6c14 \u589e\u5f3a \u6559\u80b2 \u8bf4\u670d\u529b \u611f\u53ec\u529b
p31
sS'0000000000000000000000100101011101001000110101100100111000100000'
p32
V\u6211\u56fd \u7740\u529b \u63a8\u52a8 \u5236\u9020\u4e1a \u667a\u80fd \u6253\u9020 \u793a\u8303 \u65b9\u9635 \u65b0\u534e\u793e \u5317\u4eac 5\u6708 \u65e5\u7535 \u8bb0\u8005 \u5f20 \u8f9b\u6b23 \u65e5 \u56fd\u52a1\u9662\u5e38\u52a1\u4f1a\u8bae \u63d0\u51fa \u53d1\u5c55 \u667a\u80fd\u5236\u9020 \u4e3b\u653b \u65b9\u5411 \u4e92\u8054\u7f51 \u5927\u4f17\u521b\u4e1a \u4e07\u4f17\u521b\u65b0 \u7d27\u5bc6\u7ed3\u5408 \u6253\u9020 \u52c7\u4e8e \u6539\u9769\u521b\u65b0 \u6210\u679c \u4e0d\u65ad\u6d8c\u73b0 \u5f15\u9886 \u4f5c\u7528 \u793a\u8303 \u65b9\u9635 \u5236\u9020\u4e1a \u667a\u80fd\u5316 \u7eff\u8272\u5316 \u670d\u52a1\u578b \u5347\u7ea7 \u505a\u5f3a \u4e2d\u56fd\u5236\u9020 \u6709\u52a9\u4e8e \u6316\u6398 \u53d1\u5c55\u6f5c\u529b \u52a8\u80fd \u8f6c\u6362 \u667a\u80fd\u5236\u9020 \u7a81\u7834\u53e3 \u6211\u56fd \u5236\u9020\u4e1a \u5927\u56fd \u4e92\u8054\u7f51 \u5927\u56fd \u4e24\u4e2a \u4f18\u52bf \u53d1\u6325 \u8865\u4e0a \u77ed\u677f \u52a0\u5feb \u5de5\u4e1a\u5316 \u8fdb\u7a0b \u5de5\u4fe1\u90e8 \u90e8\u957f \u82d7\u5729 \u8bf4 \u4eba\u5de5\u667a\u80fd 3d\u6253\u5370 \u65b0\u6280\u672f \u4e0d\u65ad\u6d8c\u73b0 \u65b0\u4e1a\u6001 \u63a8\u51fa \u52a0\u901f \u65b0\u7684 \u7ecf\u6d4e \u589e\u957f\u70b9 \u4fe1\u606f\u6280\u672f \u878d\u5165 \u4f20\u7edf \u5236\u9020\u4e1a \u50ac\u751f\u51fa \u4e2a\u6027\u5b9a\u5236 \u670d\u52a1\u578b \u5236\u9020 \u65b0\u4e1a\u6001 \u5f00\u8f9f \u65b0\u5e02\u573a \u5316\u89e3 \u8fc7\u5269\u4ea7\u80fd \u5370\u8c61 \u4e2d \u91cd\u91cf\u7ea7 \u9996\u94a2 \u6b63 \u667a\u80fd\u5236\u9020 \u53d8\u5f97 \u8f7b\u76c8 \u7814\u53d1\u5236\u9020 \u667a\u80fd\u5316 \u7acb\u4f53 \u505c\u8f66\u5e93 \u7cbe\u51c6 \u9ad8\u6548 \u63a7\u5236 \u8f66\u8f86 \u51fa\u5165 \u53bb\u5e93\u5b58 \u9996\u94a2 \u5e26\u6765 \u65b0\u7684 \u673a\u9047 \u5317\u4eac\u9996\u94a2 \u57ce\u8fd0 \u63a7\u80a1 \u6709\u9650\u516c\u53f8 \u526f\u603b\u7ecf\u7406 \u7530 \u519b \u8bf4 \u9996\u94a2 \u57ce\u8fd0 \u6377\u514b \u8bfa\u66fc \u73af\u5883\u6280\u672f \u80a1\u4efd\u516c\u53f8 \u7b7e\u8ba2 \u5408\u4f5c\u534f\u8bae \u56fd\u5185 \u5148\u8fdb \u667a\u6167 \u505c\u8f66\u5e93 \u6377\u514b \u73af\u4fdd\u6280\u672f \u76f8\u7ed3\u5408 \u672a\u6765 \u6709\u671b \u56fd\u5916 \u8f93\u51fa \u57ce\u5e02\u4ea4\u901a \u6c61\u67d3\u6cbb\u7406 \u7efc\u5408 \u89e3\u51b3\u65b9\u6848 \u4e92\u8054\u7f51 \u878d\u5165 \u751f\u4ea7\u5236\u9020 \u73af\u8282 \u5173\u952e \u4ea7\u54c1 \u88c5\u5907 \u667a\u80fd\u5316 \u6b65\u4f10\u52a0\u5feb \u5de5\u4fe1\u90e8 \u6570\u636e\u663e\u793a \u5e74 \u4f01\u4e1a \u6570\u5b57\u5316 \u7814\u53d1 \u5de5\u5177 \u666e\u53ca\u7387 \u5173\u952e \u5de5\u5e8f \u6570\u63a7 \u5316 \u7387 \u6211\u56fd \u667a\u80fd\u5236\u9020 \u521a \u8d77\u6b65 \u4e9f\u5f85\u89e3\u51b3 \u63a8\u52a8 \u5236\u9020\u4e1a \u667a\u80fd\u5316 \u7eff\u8272\u5316 \u670d\u52a1\u578b \u5347\u7ea7 \u9700 \u591a\u5904 \u53d1\u529b \u4f1a\u8bae \u63d0\u51fa \u653b \u5173\u952e \u5f3a \u57fa\u7840 \u9ad8\u7aef\u88c5\u5907 \u77ed\u677f \u88c5\u5907 \u667a\u80fd\u88c5\u5907 \u5207\u5165\u70b9 \u72e0\u6293 \u5173\u952e \u6838\u5fc3\u6280\u672f \u653b\u5173 \u52a0\u5feb \u5efa\u8bbe \u5de5\u4e1a \u4e92\u8054\u7f51 \u4e91\u5e73\u53f0 \u4e92\u8054\u7f51 \u5f00\u653e\u5f0f \u53cc\u521b \u5e73\u53f0 \u6293\u597d \u8bd5\u70b9 \u793a\u8303 \u56e0\u5730\u5236\u5b9c \u5efa\u8bbe \u4e2d\u56fd\u5236\u90202025 \u8bd5\u70b9 \u793a\u8303\u57ce\u5e02 \u7fa4 \u667a\u80fd\u5236\u9020 \u793a\u8303\u533a \u62e9\u4f18 \u521b\u5efa \u4e00\u6279 \u4e2d\u56fd\u5236\u90202025 \u793a\u8303\u533a \u652f\u6301 \u653f\u7b56 \u5236\u5ea6\u521b\u65b0 \u5148\u884c\u5148\u8bd5 \u667a\u80fd\u5236\u9020 \u521b\u65b0 \u6c1b\u56f4 \u4ea7\u4e1a\u96c6\u7fa4 \u6253\u9020 \u65b0\u7684 \u589e\u957f \u533a\u57df \u5de5\u4fe1\u90e8 \u89c4\u5212 \u53f8\u526f\u53f8\u957f \u674e \u5317 \u5149 \u6b64\u4e3e \u65e8\u5728 \u8bd5\u70b9 \u793a\u8303 \u63a8\u5e7f \u7ecf\u9a8c \u5e26\u52a8 \u5168\u5c40 \u6fc0\u53d1\u8d77 \u5e02\u573a\u4e3b\u4f53 \u521b\u65b0 \u79ef\u6781\u6027 \u610f\u4e49\u91cd\u5927 \u8bd5\u70b9 \u793a\u8303 \u4e2d \u6ce8\u91cd \u9f13\u52b1 \u5f15\u5bfc \u52a0\u5feb \u6784\u5efa \u7279\u8272 \u4f18\u52bf \u65b0\u578b \u5236\u9020\u4e1a \u4f53\u7cfb \u63a8\u52a8 \u56e0\u5730\u5236\u5b9c \u7279\u8272 \u533a\u57df\u8054\u52a8 \u9519\u4f4d\u7ade\u4e89 \u5236\u9020\u4e1a \u53d1\u5c55 \u65b0\u683c\u5c40 \u5de5 \u4fe1 \u90e8\u5c06 \u6269\u5927\u8bd5\u70b9 \u793a\u8303\u57ce\u5e02 \u7fa4 \u8986\u76d6\u9762 \u9009\u62e9 \u57fa\u7840 \u6761\u4ef6 \u793a\u8303 \u5e26\u52a8 \u4f5c\u7528 \u5f3a \u57ce\u5e02\u7fa4 \u4e2d\u56fd\u5236\u90202025 \u8bd5\u70b9 \u793a\u8303 \u521b\u5efa \u5de5\u4f5c \u56f4\u7ed5 \u91cd\u70b9\u9886\u57df \u77ed\u677f \u74f6\u9888 \u9074\u9009 \u4e00\u6279 \u57fa\u7840 \u6761\u4ef6 \u5173\u8054 \u7a0b\u5ea6 \u957f\u671f \u5236\u7ea6 \u4ea7\u4e1a\u53d1\u5c55 \u672a\u6765 \u5e74\u5185 \u6709\u671b \u7a81\u7834 \u9879\u76ee \u5e74\u5ea6 \u6807\u5fd7\u6027 \u9879\u76ee \u96c6\u4e2d\u529b\u91cf \u91cd\u70b9 \u653b\u5173
p33
sS'0010000000000000010000100001110111010100100010000100000111001100'
p34
V\u56fd\u5bb6\u7edf\u8ba1\u5c40 \u539f\u5c40\u957f \u738b\u4fdd\u5b89 \u53d7\u8d3f \u4ebf \u4e00\u5ba1 \u88ab\u5224\u65e0\u671f \u5e74 5\u6708 31\u65e5 \u6cb3\u5317\u7701 \u5f20\u5bb6\u53e3 \u5e02\u4e2d\u7ea7\u4eba\u6c11\u6cd5\u9662 \u516c\u5f00 \u5ba3\u5224 \u56fd\u5bb6\u7edf\u8ba1\u5c40 \u539f \u515a\u7ec4\u4e66\u8bb0 \u5c40\u957f \u738b\u4fdd\u5b89 \u53d7\u8d3f \u4e00\u6848 \u88ab\u544a\u4eba \u738b\u4fdd\u5b89 \u53d7\u8d3f\u7f6a \u5224\u5904 \u65e0\u671f\u5f92\u5211 \u5265\u593a \u653f\u6cbb\u6743\u5229 \u7ec8\u8eab \u5e76\u5904 \u6ca1\u6536 \u8d22\u4ea7 \u738b\u4fdd\u5b89 \u53d7\u8d3f \u6240\u5f97 \u8d22\u7269 \u5b73\u606f \u4f9d\u6cd5 \u4e88\u4ee5 \u8ffd\u7f34 \u4e0a\u7f34\u56fd\u5e93 \u5ba1\u7406 \u67e5\u660e 4\u5e74 \u5e74 \u88ab\u544a\u4eba \u738b\u4fdd\u5b89 \u5229\u7528 \u62c5\u4efb \u56fd\u5bb6\u7a0e\u52a1\u603b\u5c40 \u529e\u516c\u5385 \u79d8\u4e66 \u8d22\u653f\u90e8 \u529e\u516c\u5385 \u526f\u4e3b\u4efb \u7efc\u5408\u53f8 \u53f8\u957f \u9ed1\u9f99\u6c5f\u7701 \u4eba\u6c11\u653f\u5e9c \u515a\u7ec4\u6210\u5458 \u7701\u957f\u52a9\u7406 \u6302\u804c \u8d22\u653f\u90e8 \u515a\u7ec4\u6210\u5458 \u90e8\u957f\u52a9\u7406 \u526f\u90e8\u957f \u56fd\u5bb6\u7edf\u8ba1\u5c40 \u515a\u7ec4\u4e66\u8bb0 \u5c40\u957f \u804c\u52a1 \u4fbf\u5229 \u5229\u7528 \u804c\u6743 \u5730\u4f4d \u4fbf\u5229 \u6761\u4ef6 \u5176\u4ed6\u56fd\u5bb6 \u5de5\u4f5c\u4eba\u5458 \u804c\u52a1 \u76f8\u5173 \u5355\u4f4d \u5f69\u7968\u9500\u552e \u8d37\u6b3e\u7533\u8bf7 \u9879\u76ee\u5ba1\u6279 \u571f\u5730\u5f00\u53d1 \u5de5\u4f5c \u62db\u5f55 \u804c\u52a1\u8c03\u6574 \u4e8b\u9879 \u63d0\u4f9b\u5e2e\u52a9 \u975e\u6cd5 \u6536\u53d7 \u4eba\u8d22\u7269 \u5171\u8ba1 \u6298\u5408 \u4eba\u6c11\u5e01 \u4ebf\u4f59\u5143 \u5f20\u5bb6\u53e3 \u5e02\u4e2d\u7ea7\u4eba\u6c11\u6cd5\u9662 \u88ab\u544a\u4eba \u738b\u4fdd\u5b89 \u53d7\u8d3f\u7f6a \u738b\u4fdd\u5b89 \u5230\u6848 \u5982\u5b9e \u4f9b\u8ff0 \u7f6a\u884c \u8ba4\u7f6a \u6094\u7f6a \u9000\u8d43 \u6cd5\u5b9a \u914c\u5b9a \u5904\u7f5a \u60c5\u8282 \u4f9d\u6cd5 \u5904\u7f5a \u6cd5\u5ead \u9042 \u4f5c\u51fa \u5224\u51b3
p35
sS'0010000000000000000000110101101000011011100100110110001100001001'
p36
V4\u6708 \u5168\u56fd \u53d7\u7406 \u4ef7\u683c\u4e3e\u62a5 \u4ef6 \u505c\u8f66\u8d39 \u5c45\u9996 \u4e2d\u65b0\u7f51 5\u6708 \u65e5\u7535 \u56fd\u5bb6\u53d1\u6539\u59d4 \u4eca\u5929\u4e0a\u5348 \u65b0\u95fb \u53d1\u5e03\u4f1a \u653f\u7b56\u7814\u7a76\u5ba4 \u526f\u4e3b\u4efb \u517c \u65b0\u95fb \u53d1\u8a00\u4eba \u5b5f \u73ae \u4ecb\u7ecd \u4ef7\u683c \u8fd0\u884c \u76d1\u7ba1 \u60c5\u51b5 \u5b5f \u73ae \u6307\u51fa 4\u6708 \u5168\u56fd \u4ef7\u683c \u76d1\u7ba1\u5e73\u53f0 \u5171 \u53d7\u7406 \u4ef7\u683c\u4e3e\u62a5 \u6295\u8bc9 \u4fe1\u8bbf \u54a8\u8be2 \u5171\u8ba1 \u4ef6 \u540c\u6bd4\u589e\u957f \u53d7\u7406 \u91cf \u6392\u540d \u524d\u4e94 \u505c\u8f66\u6536\u8d39 \u7f51\u7edc\u8d2d\u7269 \u5546\u54c1\u96f6\u552e \u4ea4\u901a\u8fd0\u8f93 \u533b\u836f \u8d44\u6599\u56fe 1\u6708 \u65e5 \u6c5f\u82cf\u5357\u4eac \u5929\u6d25\u8def \u505c\u8f66 \u6536\u8d39\u5458 \u5c55\u793a \u505c\u8f66\u6536\u8d39 \u5237\u5361 pos\u673a \u6cf1 \u6ce2 \u6444 \u8d44\u6599\u56fe \u505c\u8f66 \u6536\u8d39\u5458 \u5c55\u793a \u505c\u8f66\u6536\u8d39 \u5237\u5361 pos\u673a \u6cf1 \u6ce2 \u6444 \u5b5f \u73ae \u4ecb\u7ecd \u4ef7\u683c \u8fd0\u884c \u53d1\u6539\u59d4 \u5927\u4e2d\u57ce\u5e02 \u76d1\u6d4b 4\u6708 \u4efd \u98df\u54c1\u4ef7\u683c \u5c0f\u5e45 \u4e0b\u964d \u91cd\u70b9 \u76d1\u6d4b \u98df\u54c1 \u52a0\u6743\u5e73\u5747 \u4ef7\u683c\u6bd4 \u4e0a\u6708 \u4e0b\u8dcc \u53bb\u5e74\u540c\u671f \u76f8\u6bd4 \u98df\u54c1 \u4ef7\u683c\u4e0b\u964d \u94a2\u6750\u4ef7\u683c \u5927\u5e45 \u4e0b\u964d 4\u6708 \u4efd \u5168\u56fd \u94a2\u6750\u4ef7\u683c \u6307\u6570 \u4e0a\u6708 \u4e0b\u964d \u70b9 \u53bb\u5e74\u540c\u671f \u4e0a\u6da8 \u70b9 \u6709\u8272\u91d1\u5c5e \u4ef7\u683c\u4e0b\u964d 4\u6708 \u4efd \u5168\u56fd \u6709\u8272\u91d1\u5c5e \u4ef7\u683c\u6307\u6570 \u4e0a\u6708 \u4e0b\u964d \u70b9 \u53bb\u5e74\u540c\u671f \u4e0a\u6da8 \u70b9 \u6210\u54c1\u6cb9 \u6279\u53d1\u4ef7\u683c \u5fae\u964d 4\u6708 \u4efd \u5168\u56fd \u6210\u54c1\u6cb9 \u6279\u53d1\u4ef7\u683c \u6307\u6570 \u4e0a\u6708 \u4e0b\u964d \u70b9 \u53bb\u5e74\u540c\u671f \u4e0a\u6da8 \u70b9 \u5b5f \u73ae \u63d0\u5230 \u4ef7\u683c\u76d1\u7ba1 4\u6708 \u5168\u56fd \u4ef7\u683c \u76d1\u7ba1\u5e73\u53f0 \u5171 \u53d7\u7406 \u4ef7\u683c\u4e3e\u62a5 \u6295\u8bc9 \u4fe1\u8bbf \u54a8\u8be2 \u5171\u8ba1 \u4ef6 \u540c\u6bd4\u589e\u957f \u53d7\u7406 \u91cf \u6392\u540d \u524d\u4e94 \u505c\u8f66\u6536\u8d39 \u7f51\u7edc\u8d2d\u7269 \u5546\u54c1\u96f6\u552e \u4ea4\u901a\u8fd0\u8f93 \u533b\u836f 4\u6708 \u65e5 \u5317\u4eac \u533b\u836f\u5206\u5f00 \u7efc\u5408\u6539\u9769 \u5b9e\u65bd\u65b9\u6848 \u6b63\u5f0f \u65bd\u884c \u65b0\u533b\u6539 \u9881\u5e03\u5b9e\u65bd \u793e\u4f1a \u5173\u6ce8 \u5168\u56fd \u5e73\u53f0 \u672c\u6708 \u5386\u53f2\u6570\u636e \u533b\u4e8b\u670d\u52a1\u8d39 \u533b\u6539\u653f\u7b56 \u5317\u4eac\u5e02\u6c11 \u54a8\u8be2 \u65b0 \u70ed\u8bcd \u5168\u56fd \u533b\u836f\u884c\u4e1a \u53d7\u7406 \u91cf \u540c\u6bd4 \u51cf\u5c11 \u80cc\u666f \u5317\u4eac\u5e02 \u533b\u836f\u884c\u4e1a \u53d7\u7406 \u91cf \u540c\u6bd4\u589e\u957f \u500d \u653f\u7b56\u54a8\u8be2 \u7c7b \u5360 \u53cd \u6620\u51fa \u7fa4\u4f17 \u533b\u6539\u653f\u7b56 \u9ad8\u5ea6 \u5173\u5207
p37
sS'0010000000000000000000110101111000101111100111010111110110111110'
p38
V\u674e\u514b\u5f3a \u5fb7\u56fd\u603b\u7406 \u9ed8\u514b\u5c14 \u4e2d\u5fb7 \u603b\u7406 \u5e74\u5ea6 \u4f1a\u6664 \u674e\u514b\u5f3a \u5fb7\u56fd\u603b\u7406 \u9ed8\u514b\u5c14 \u4e2d\u5fb7 \u603b\u7406 \u5e74\u5ea6 \u4f1a\u6664 \u65f6 \u521b\u65b0\u5408\u4f5c \u53cc\u5411\u5f00\u653e \u63a8\u52a8 \u4e2d\u5fb7 \u5168\u65b9\u4f4d \u6218\u7565\u4f19\u4f34 \u5173\u7cfb \u518d\u4e0a \u65b0\u53f0\u9636 \u5f53\u5730\u65f6\u95f4 5\u6708 31\u65e5 \u4e0b\u5348 \u56fd\u52a1\u9662\u603b\u7406 \u674e\u514b\u5f3a \u67cf\u6797 \u603b\u7406\u5e9c \u5fb7\u56fd\u603b\u7406 \u9ed8\u514b\u5c14 \u4e2d\u5fb7 \u603b\u7406 \u5e74\u5ea6 \u4f1a\u6664 \u674e\u514b\u5f3a \u4e2d\u5fb7\u5173\u7cfb \u53d1\u5c55\u8fc5\u901f \u65e5\u81fb\u6210\u719f \u4e24\u56fd \u9ad8\u5c42 \u4ea4\u5f80 \u8d38\u6613\u6295\u8d44 \u5feb\u901f\u53d1\u5c55 \u4eba\u6587\u4ea4\u6d41 \u65b0\u7684 \u5f00\u62d3 \u56fd\u9645\u5f62\u52bf \u4e0d\u786e\u5b9a \u56e0\u7d20 \u4f9d\u7136 \u9006\u5168\u7403\u5316 \u601d\u6f6e \u4fdd\u62a4\u4e3b\u4e49 \u503e\u5411 \u62ac\u5934 \u80cc\u666f \u4e2d\u5fb7 \u5e94 \u79c9\u6301 \u76f8\u4e92\u5c0a\u91cd \u5e73\u7b49 \u76f8\u5f85 \u4e92\u4fe1 \u6df1\u5316 \u5408\u4f5c \u4ea4\u6d41 \u8d38\u6613\u6295\u8d44 \u81ea\u7531\u5316 \u4fbf\u5229\u5316 \u7ef4\u62a4 \u4e16\u754c\u8d38\u6613\u7ec4\u7ec7 \u89c4\u5219 \u4e2d\u5fb7\u5173\u7cfb \u5408\u4f5c \u7a33\u5b9a\u6027 \u5e94\u5bf9 \u5916\u90e8 \u4e0d\u786e\u5b9a\u6027 \u5171 \u540c\u4e3a \u5730\u533a \u4e16\u754c \u6ce8\u5165 \u7a33\u5b9a \u5408\u4f5c \u53d1\u5c55 \u79ef\u6781\u4fe1\u53f7 \u674e\u514b\u5f3a \u6307\u51fa \u4e2d\u5fb7 \u7ecf\u6d4e \u4e92\u8865\u6027 \u5f3a \u5229\u76ca \u5951\u5408\u70b9 \u5408\u4f5c \u6f5c\u529b \u4e2d\u65b9 \u613f \u4e2d\u56fd\u5236\u90202025 \u5fb7\u56fd \u5de5\u4e1a40 \u53d1\u5c55\u6218\u7565 \u66f4\u597d \u5bf9\u63a5 \u76f8\u4e92 \u5e73\u7b49 \u5f00\u653e \u5408\u4f5c \u86cb\u7cd5 \u505a\u5927 \u6df1\u5316 \u5236\u9020\u4e1a \u80fd\u6e90 \u822a\u7a7a \u521b\u65b0 \u4e2d\u5c0f\u4f01\u4e1a \u5408\u4f5c \u5e0c\u671b \u5fb7 \u65b9\u4e3a \u4e2d\u56fd \u81ea\u4e3b\u7814\u53d1 \u5236\u9020 \u5927\u98de\u673a c919 \u6b27\u76df \u9002\u822a\u8ba4\u8bc1 \u63d0\u4f9b \u652f\u6301 \u6559\u80b2 \u6587\u5316\u65c5\u6e38 \u5408\u4f5c \u8fdb\u4e00\u6b65 \u4fbf\u5229 \u4eba\u5458 \u5f80\u6765 \u4e2d\u65b9 \u652f\u6301 \u5fb7 \u65b9 \u4e3b\u529e \u4e8c\u5341\u56fd\u96c6\u56e2 \u9886\u5bfc\u4eba \u5cf0\u4f1a \u613f \u643a\u624b \u63a8\u8fdb \u5168\u7403\u7ecf\u6d4e \u6cbb\u7406 \u4e16\u754c\u7ecf\u6d4e \u5f3a\u52b2 \u53ef\u6301\u7eed \u5e73\u8861 \u589e\u957f \u674e\u514b\u5f3a \u4e2d\u56fd \u6b27\u76df \u6218\u7565\u4f19\u4f34 \u4e2d\u65b9 \u59cb\u7ec8 \u652f\u6301 \u6b27\u6d32 \u4e00\u4f53\u5316 \u8fdb\u7a0b \u4e50\u89c1 \u6b27\u6d32 \u56e2\u7ed3 \u7e41\u8363\u7a33\u5b9a \u5229\u4e8e \u63a8\u8fdb \u4e16\u754c \u591a\u6781\u5316 \u7ecf\u6d4e \u5168\u7403\u5316 \u9ed8\u514b\u5c14 \u5fb7\u56fd \u4e2d\u56fd \u53ef\u9760 \u5408\u4f5c\u4f19\u4f34 \u4e24\u56fd\u5173\u7cfb \u5f3a\u52b2 \u5408\u4f5c \u56fd\u9645\u5f62\u52bf \u5fb7 \u4e2d \u9ad8\u5c42\u5bf9\u8bdd \u5fb7 \u65b9 \u613f \u4e2d\u65b9 \u4e92\u5229 \u53cc\u8d62 \u7cbe\u795e \u8fdb\u4e00\u6b65 \u8d38\u6613\u6295\u8d44 \u91d1\u878d \u65b0\u80fd\u6e90 \u6c7d\u8f66 \u533b\u7597 \u4eba\u6587 \u8bf8\u591a \u9886\u57df \u4ea4\u6d41 \u5408\u4f5c \u843d\u5b9e \u5fb7\u56fd \u5de5\u4e1a40 \u6218\u7565 \u4e2d\u56fd\u5236\u90202025 \u5bf9\u63a5 \u4e8c\u5341\u56fd\u96c6\u56e2 \u6846\u67b6 \u6269\u5927\u5408\u4f5c \u5fb7 \u65b9 \u9ad8\u5ea6 \u8d5e\u8d4f \u4e2d\u65b9 \u652f\u6301 \u6b27\u6d32 \u4e00\u4f53\u5316 \u7acb\u573a \u671f\u5f85 \u7b2c\u5341\u4e5d\u6b21 \u6b27\u76df \u4e2d\u56fd \u9886\u5bfc\u4eba \u4f1a\u6664 \u6210\u679c \u5173\u5fc3 \u56fd\u9645 \u5730\u533a \u4ea4\u6362\u610f\u89c1 \u4f1a\u6664 \u524d \u9ed8\u514b\u5c14 \u603b\u7406\u5e9c \u5e7f\u573a \u674e\u514b\u5f3a \u9686\u91cd \u6b22\u8fce\u4eea\u5f0f \u674e\u514b\u5f3a \u62b5\u8fbe \u65f6 \u9ed8\u514b\u5c14 \u524d\u5f80 \u8fce\u63a5 \u767b\u4e0a \u68c0\u9605\u53f0 \u519b\u4e50\u961f \u9ad8\u594f \u4e2d\u5fb7 \u4e24\u56fd \u56fd\u6b4c \u674e\u514b\u5f3a \u9ed8\u514b\u5c14 \u966a\u540c \u68c0\u9605 \u4eea\u4ed7\u961f \u4e2d\u5fb7 \u4e24\u56fd \u56fd\u65d7 \u5e7f\u573a \u4e0a\u7a7a \u8fce\u98ce\u98d8\u626c \u4e07\u94a2 \u5468\u5c0f\u5ddd \u5fb7\u56fd \u526f\u603b\u7406 \u517c \u5916\u957f \u52a0\u5e03\u91cc\u5c14 \u53c2\u52a0 \u4f1a\u6664
p39
sS'0010000000000000000000010000011010111110010001010010111010110100'
p40
V\u5347\u7ea7 \u91d1\u878d\u4e1a \u76d1\u7ba1 \u843d\u5b9e \u4e60\u8fd1\u5e73 \u603b\u4e66\u8bb0 \u91d1\u878d\u5b89\u5168 \u91cd\u8981\u8bb2\u8bdd \u7cbe\u795e \u7cfb\u5217 \u8ff0\u8bc4 \u4e4b\u4e8c \u65b0\u534e\u793e \u5317\u4eac 5\u6708 \u65e5\u7535 \u8bb0\u8005 \u8bb8 \u665f \u4e2d\u5171\u4e2d\u592e\u653f\u6cbb\u5c40 \u8fd1\u65e5 \u7ef4\u62a4 \u56fd\u5bb6 \u91d1\u878d\u5b89\u5168 \u7b2c\u56db \u5341\u6b21 \u96c6\u4f53\u5b66\u4e60 \u4e60\u8fd1\u5e73 \u603b\u4e66\u8bb0 \u7ef4\u62a4 \u91d1\u878d\u5b89\u5168 \u63d0\u51fa \u9879 \u4fbf\u662f \u91d1\u878d\u76d1\u7ba1 \u6211\u56fd \u91d1\u878d \u5927\u56fd \u76f8\u6bd4 \u6539\u9769\u5f00\u653e \u521d\u671f \u5355\u4e00 \u72ed\u7a84 \u91d1\u878d\u673a\u6784 \u91d1\u878d\u4e1a\u52a1 \u94f6\u884c \u4e1a\u52a1\u8303\u56f4 \u4e0d\u65ad\u6269\u5927 \u975e\u94f6\u884c\u91d1\u878d\u673a\u6784 \u589e\u591a \u7279\u522b \u4e92\u8054\u7f51 \u91d1\u878d\u521b\u65b0 \u8fed\u51fa \u6211\u56fd \u9762\u4e34 \u91d1\u878d\u76d1\u7ba1 \u6311\u6218 \u8d8a\u6765\u8d8a \u91d1\u878d\u76d1\u7ba1 \u7ef4\u62a4 \u767e\u59d3 \u6743\u76ca \u5c45\u6c11 \u8d44\u4ea7\u914d\u7f6e \u610f\u8bc6 \u589e\u5f3a \u7406\u8d22\u4ea7\u54c1 \u8d8a\u6765\u8d8a\u591a \u666e\u901a\u767e\u59d3 \u63a5\u53d7 \u767e\u59d3 \u91d1\u878d\u98ce\u9669 \u9632\u8303\u610f\u8bc6 \u5c1a\u6709 \u91d1\u878d\u673a\u6784 \u94e4\u800c\u8d70\u9669 \u76d1\u7ba1 \u64e6\u8fb9\u7403 \u7834\u574f \u6cd5\u5f8b\u6cd5\u89c4 \u610f\u56fe \u635f\u5bb3 \u767e\u59d3 \u5408\u6cd5\u6743\u76ca \u76d1\u7ba1 \u767e\u59d3 \u94b1\u888b\u5b50 \u66f4 \u91d1\u878d\u76d1\u7ba1 \u7ef4\u62a4 \u91d1\u878d \u5e02\u573a\u79e9\u5e8f \u8fd1\u4e9b\u5e74\u6765 \u6211\u56fd \u91d1\u878d\u5e02\u573a \u5feb\u901f\u53d1\u5c55 \u7834\u574f \u91d1\u878d \u5e02\u573a\u79e9\u5e8f \u4f2a \u521b\u65b0 \u89c4\u5219 \u7834\u574f\u8005 \u4e0d\u52a0 \u4e25\u5389 \u76d1\u7ba1 \u52bf\u5fc5\u4f1a \u5e02\u573a \u4e2d \u597d\u4eba \u53d7\u4f24 \u5f71\u54cd \u91d1\u878d\u5e02\u573a \u7a33\u5b9a \u5065\u5eb7\u53d1\u5c55 \u91d1\u878d\u5e02\u573a \u529f\u80fd \u96be\u4ee5 \u53d1\u6325 \u91d1\u878d \u5e02\u573a\u79e9\u5e8f \u7ef4\u62a4 \u91d1\u878d \u66f4\u597d \u670d\u52a1 \u56fd\u6c11\u7ecf\u6d4e \u91d1\u878d\u76d1\u7ba1 \u66f4\u662f \u7ef4\u62a4 \u56fd\u5bb6 \u91d1\u878d\u5b89\u5168 \u6211\u56fd \u91d1\u878d\u5e02\u573a \u53d1\u5c55 \u7ecf\u6d4e\u793e\u4f1a \u8bb8 \u591a\u65b9\u9762 \u79bb\u4e0d\u5f00 \u91d1\u878d\u5e02\u573a \u652f\u6301 \u91d1\u878d\u9886\u57df \u53d1\u751f \u98ce\u9669\u4e8b\u4ef6 \u5c31\u4f1a \u7275\u52a8 \u5b9e\u4f53\u7ecf\u6d4e \u91d1\u878d \u5168\u5c40\u6027 \u76d1\u7ba1 \u98ce\u9669\u4e8b\u4ef6 \u53d1\u751f \u53ef\u80fd\u6027 \u964d\u5230 \u6700\u4f4e \u5229\u4e8e \u56fd\u5bb6 \u91d1\u878d\u5b89\u5168 \u4e60\u8fd1\u5e73 \u603b\u4e66\u8bb0 \u63d0\u51fa \u65f6 \u7edf\u7b79 \u76d1\u7ba1 \u7cfb\u7edf \u91cd\u8981\u6027 \u91d1\u878d\u673a\u6784 \u7edf\u7b79 \u76d1\u7ba1 \u91d1\u878d\u63a7\u80a1 \u516c\u53f8 \u91d1\u878d \u57fa\u7840\u8bbe\u65bd \u7edf\u7b79 \u8d1f\u8d23 \u91d1\u878d\u4e1a \u7efc\u5408 \u7edf\u8ba1 \u786e\u4fdd \u91d1\u878d\u7cfb\u7edf \u826f\u6027 \u8fd0\u8f6c \u786e\u4fdd \u7ba1\u7406\u90e8\u95e8 \u628a\u4f4f \u91cd\u70b9 \u73af\u8282 \u786e\u4fdd \u98ce\u9669 \u9632\u63a7 \u8033\u806a\u76ee\u660e \u91d1\u878d\u53d1\u5c55 \u76d1\u7ba1 \u5f3a\u5927 \u5408\u529b \u8865\u9f50 \u76d1\u7ba1 \u77ed\u677f \u76d1\u7ba1\u7a7a\u767d \u5bf9\u7cfb\u7edf \u91cd\u8981\u6027 \u91d1\u878d\u673a\u6784 \u76d1\u7ba1 \u9632\u8303 \u5927\u800c\u4e0d\u5012 \u673a\u6784 \u98ce\u9669\u4e8b\u4ef6 \u4e8e\u672a\u7136 \u91d1\u878d\u63a7\u80a1 \u516c\u53f8 \u91d1\u878d \u57fa\u7840\u8bbe\u65bd \u76d1\u7ba1 \u7ec7 \u91d1\u878d\u5b89\u5168 \u7f51 \u7edf\u7b79 \u8d1f\u8d23 \u91d1\u878d\u4e1a \u7efc\u5408 \u7edf\u8ba1 \u51c6\u786e \u91d1\u878d\u7cfb\u7edf \u4fe1\u606f \u6570\u636e \u5168\u5c40 \u98ce\u9669 \u5fc3\u4e2d\u6709\u6570 \u9632\u63a7 \u98ce\u9669 \u63d0\u4f9b \u4e00\u5e45 \u5168\u666f \u5730\u56fe \u4e09\u4e2a \u7edf\u7b79 \u6211\u56fd \u91d1\u878d\u4e1a \u6df7\u4e1a\u7ecf\u8425 \u65b0\u8d8b\u52bf \u8feb\u5207\u8981\u6c42 \u673a\u6784 \u5c42\u9762 \u6211\u56fd \u5df2\u6709 \u4f01\u4e1a \u6301\u6709 \u591a\u79cd \u91d1\u878d\u724c\u7167 \u91d1\u878d\u673a\u6784 \u95f4 \u76f8\u4e92 \u6295\u8d44 \u73b0\u8c61 \u666e\u904d\u5b58\u5728 \u4ea7\u54c1 \u5c42\u9762 \u76f8\u4e92 \u5d4c\u5957 \u7406\u8d22\u4ea7\u54c1 \u5f71\u5b50\u94f6\u884c \u5305\u542b \u94f6\u884c\u8bc1\u5238 \u4fdd\u9669 \u4fe1\u6258 \u591a\u4e2a \u8981\u7d20 \u76d1\u7ba1\u5c42 \u534f\u8c03 \u591a\u65b9\u9762 \u7edf\u7b79 \u4e25\u63a7 \u73af\u8282 \u98ce\u9669 \u79cd\u79cd \u8ff9\u8c61 \u663e\u793a \u91d1\u878d\u4e1a \u76d1\u7ba1 \u8fd1\u671f \u94f6\u76d1\u4f1a \u8bc1\u76d1\u4f1a \u4fdd\u76d1\u4f1a \u76d1\u7ba1\u90e8\u95e8 \u76f8\u5173 \u8d1f\u8d23\u4eba \u591a\u4e2a \u573a\u5408 \u8fdd\u6cd5\u8fdd\u89c4 \u4e3b\u4f53 \u9891\u9891 \u558a\u8bdd \u591a\u4e2a \u90e8\u95e8 \u53d1\u6587 \u91d1\u878d \u91cd\u70b9\u9886\u57df \u91d1\u878d\u5e02\u573a \u4e71\u8c61 \u76d1\u7ba1 \u76d1\u7ba1\u90e8\u95e8 \u95f4 \u5408\u4f5c \u660e\u663e\u589e\u5f3a \u4e0d\u5b88\u89c4\u77e9 \u5e02\u573a\u4e3b\u4f53 \u76f8\u5173 \u5904\u7f5a \u8bc1\u76d1\u4f1a \u8d44\u672c\u5e02\u573a \u5927\u9cc4 \u9c9c \u8a00 \u5f00\u51fa \u9ad8\u8fbe 7\u4ebf \u5143 \u53f2\u4e0a\u6700\u5927 \u7f5a\u5355 \u7ec8\u8eab\u7981\u5165 \u8bc1\u5238\u5e02\u573a \u524d\u6d77\u4eba\u5bff \u65f6\u4efb \u8463\u4e8b\u957f \u59da\u632f\u534e \u7981\u6b62\u8fdb\u5165 10\u5e74 \u4e2a\u6848 \u5df2\u6709 \u7f5a\u6b3e\u91d1\u989d \u4ec5 \u4e00\u5b63\u5ea6 \u6211\u56fd \u91d1\u878d \u76d1\u7ba1\u90e8\u95e8 \u8fdd\u89c4 \u673a\u6784 \u5904\u7f5a \u91d1\u989d \u5df2\u8fbe \u6570\u5341\u4ebf\u5143 \u89c4\u8303\u7ba1\u7406 \u76d1\u7763 \u91d1\u878d\u673a\u6784 \u91d1\u878d\u4e1a\u52a1 \u91d1\u878d\u5e02\u573a \u624b\u6bb5 \u91d1\u878d\u76d1\u7ba1 \u91d1\u878d \u6d3b\u52a8 \u4fbf \u5e94\u8fd0\u800c\u751f \u6211\u56fd \u5c45\u6c11 \u8d22\u5bcc \u589e\u52a0 \u91d1\u878d \u6d3b\u52a8 \u56fd\u8ba1\u6c11\u751f \u4e2d \u5f71\u54cd \u8d8a\u6765\u8d8a \u7740\u529b \u5347\u7ea7 \u76d1\u7ba1 \u80fd\u529b \u6c34\u5e73 \u66f4\u597d \u7ef4\u62a4 \u56fd\u5bb6 \u91d1\u878d\u5b89\u5168 \u7ecf\u6d4e\u53d1\u5c55 \u7ef4\u62a4 \u767e\u59d3 \u5408\u6cd5\u6743\u76ca
p41
s.