(lp1
(dp2
S'0000'
p3
(lp4
S'000000000000000000111101111110010010000011101111110001101111'
p5
aS'000000000000000000101101010001001010010010000011010001010001'
p6
aS'000000000000000000100101001001111101101010110111100001100100'
p7
aS'000000000000000000100101011101001000110101100100111000100000'
p8
aS'000000000000000000111100000110000000110000111111011110111000'
p9
aS'000000000000000000101001110111001101101000011011110001100100'
p10
aS'000000000000000000101100000110010110111011101010111110110000'
p11
asS'0010'
p12
(lp13
S'000000100000001000100100110000001110110001001110111111100001'
p14
aS'111000000110100011011001100111011010101011100000100011010001'
p15
aS'000000000000000000010001000111011000011001001001101111110100'
p16
aS'000000000000000000010000011010111110010001010010111010110100'
p17
aS'000000000000000000110101101000011011100100110110001100001001'
p18
aS'110000000000100001100101011011001011100001000100001010100000'
p19
aS'000000000000000000110101111000101111100111010111110110111110'
p20
aS'000000000000000000101111001010110010010001010111101100000101'
p21
aS'000000000000000000100001100000110101010101011000011101001001'
p22
aS'000000000000010000100001110111010100100010000100000111001100'
p23
aS'000000000000000000000111111111001111000110010100010010100011'
p24
aS'000000000000000000100110010110010001000101110100001001111011'
p25
aS'000000000000000000110010000000111100111101101010011101000111'
p26
asa(dp27
S'1110'
p28
(lp29
S'001000000110100011011001100111011010101011100000100011010001'
p30
asS'0000'
p31
(lp32
S'001000100000001000100100110000001110110001001110111111100001'
p33
aS'000000000000000000111101111110010010000011101111110001101111'
p34
aS'000000000000000000101101010001001010010010000011010001010001'
p35
aS'000000000000000000100101001001111101101010110111100001100100'
p36
aS'001000000000000000010001000111011000011001001001101111110100'
p37
aS'000000000000000000100101011101001000110101100100111000100000'
p38
aS'001000000000000000010000011010111110010001010010111010110100'
p39
aS'001000000000000000110101101000011011100100110110001100001001'
p40
aS'001000000000000000110101111000101111100111010111110110111110'
p41
aS'001000000000000000101111001010110010010001010111101100000101'
p42
aS'001000000000000000100001100000110101010101011000011101001001'
p43
aS'001000000000010000100001110111010100100010000100000111001100'
p44
aS'000000000000000000111100000110000000110000111111011110111000'
p45
aS'000000000000000000101001110111001101101000011011110001100100'
p46
aS'000000000000000000101100000110010110111011101010111110110000'
p47
aS'001000000000000000000111111111001111000110010100010010100011'
p48
aS'001000000000000000100110010110010001000101110100001001111011'
p49
aS'001000000000000000110010000000111100111101101010011101000111'
p50
asS'1100'
p51
(lp52
S'001000000000100001100101011011001011100001000100001010100000'
p53
asa(dp54
S'0000'
p55
(lp56
S'000000000000000000111101111110010010000011101111110001101111'
p57
aS'001011100110100011011001100111011010101011100000100011010001'
p58
aS'000000000000000000101101010001001010010010000011010001010001'
p59
aS'000000000000000000100101001001111101101010110111100001100100'
p60
aS'001000000000000000010001000111011000011001001001101111110100'
p61
aS'000000000000000000100101011101001000110101100100111000100000'
p62
aS'001000000000000000010000011010111110010001010010111010110100'
p63
aS'001000000000000000110101101000011011100100110110001100001001'
p64
aS'001011000000100001100101011011001011100001000100001010100000'
p65
aS'001000000000000000110101111000101111100111010111110110111110'
p66
aS'001000000000000000101111001010110010010001010111101100000101'
p67
aS'001000000000000000100001100000110101010101011000011101001001'
p68
aS'001000000000010000100001110111010100100010000100000111001100'
p69
aS'000000000000000000111100000110000000110000111111011110111000'
p70
aS'000000000000000000101001110111001101101000011011110001100100'
p71
aS'000000000000000000101100000110010110111011101010111110110000'
p72
aS'001000000000000000000111111111001111000110010100010010100011'
p73
aS'001000000000000000100110010110010001000101110100001001111011'
p74
aS'001000000000000000110010000000111100111101101010011101000111'
p75
asS'0010'
p76
(lp77
S'001000000000001000100100110000001110110001001110111111100001'
p78
asa(dp79
S'0110'
p80
(lp81
S'001011100000100011011001100111011010101011100000100011010001'
p82
asS'0000'
p83
(lp84
S'001000000010001000100100110000001110110001001110111111100001'
p85
aS'000000000000000000111101111110010010000011101111110001101111'
p86
aS'000000000000000000101101010001001010010010000011010001010001'
p87
aS'000000000000000000100101001001111101101010110111100001100100'
p88
aS'001000000000000000010001000111011000011001001001101111110100'
p89
aS'000000000000000000100101011101001000110101100100111000100000'
p90
aS'001000000000000000010000011010111110010001010010111010110100'
p91
aS'001000000000000000110101101000011011100100110110001100001001'
p92
aS'001011000000100001100101011011001011100001000100001010100000'
p93
aS'001000000000000000110101111000101111100111010111110110111110'
p94
aS'001000000000000000101111001010110010010001010111101100000101'
p95
aS'001000000000000000100001100000110101010101011000011101001001'
p96
aS'001000000000010000100001110111010100100010000100000111001100'
p97
aS'000000000000000000111100000110000000110000111111011110111000'
p98
aS'000000000000000000101001110111001101101000011011110001100100'
p99
aS'000000000000000000101100000110010110111011101010111110110000'
p100
aS'001000000000000000000111111111001111000110010100010010100011'
p101
aS'001000000000000000100110010110010001000101110100001001111011'
p102
aS'001000000000000000110010000000111100111101101010011101000111'
p103
asa(dp104
S'1000'
p105
(lp106
S'001011100000011011011001100111011010101011100000100011010001'
p107
aS'001011000000000001100101011011001011100001000100001010100000'
p108
asS'0000'
p109
(lp110
S'000000000000000000111101111110010010000011101111110001101111'
p111
aS'000000000000000000101101010001001010010010000011010001010001'
p112
aS'000000000000000000100101001001111101101010110111100001100100'
p113
aS'001000000000000000010001000111011000011001001001101111110100'
p114
aS'000000000000000000100101011101001000110101100100111000100000'
p115
aS'001000000000000000010000011010111110010001010010111010110100'
p116
aS'001000000000000000110101101000011011100100110110001100001001'
p117
aS'001000000000000000110101111000101111100111010111110110111110'
p118
aS'001000000000000000101111001010110010010001010111101100000101'
p119
aS'001000000000000000100001100000110101010101011000011101001001'
p120
aS'000000000000000000111100000110000000110000111111011110111000'
p121
aS'000000000000000000101001110111001101101000011011110001100100'
p122
aS'000000000000000000101100000110010110111011101010111110110000'
p123
aS'001000000000000000000111111111001111000110010100010010100011'
p124
aS'001000000000000000100110010110010001000101110100001001111011'
p125
aS'001000000000000000110010000000111100111101101010011101000111'
p126
asS'0100'
p127
(lp128
S'001000000000000000100001110111010100100010000100000111001100'
p129
asS'0010'
p130
(lp131
S'001000000010000000100100110000001110110001001110111111100001'
p132
asa(dp133
S'0110'
p134
(lp135
S'001011000000000010000101011011001011100001000100001010100000'
p136
asS'0000'
p137
(lp138
S'001000000000000000000111111111001111000110010100010010100011'
p139
asS'0001'
p140
(lp141
S'001000000000000000000001000111011000011001001001101111110100'
p142
aS'001000000000000000000000011010111110010001010010111010110100'
p143
asS'0011'
p144
(lp145
S'000000000000000000001101111110010010000011101111110001101111'
p146
aS'001000000000000000000101101000011011100100110110001100001001'
p147
aS'001000000000000000000101111000101111100111010111110110111110'
p148
aS'000000000000000000001100000110000000110000111111011110111000'
p149
aS'001000000000000000000010000000111100111101101010011101000111'
p150
asS'0010'
p151
(lp152
S'001000000010000000100100110000001110110001001110111111100001'
p153
aS'000000000000000000001101010001001010010010000011010001010001'
p154
aS'000000000000000000000101001001111101101010110111100001100100'
p155
aS'000000000000000000000101011101001000110101100100111000100000'
p156
aS'001000000000000000001111001010110010010001010111101100000101'
p157
aS'001000000000000000000001100000110101010101011000011101001001'
p158
aS'001000000000000001000001110111010100100010000100000111001100'
p159
aS'000000000000000000001001110111001101101000011011110001100100'
p160
aS'000000000000000000001100000110010110111011101010111110110000'
p161
aS'001000000000000000000110010110010001000101110100001001111011'
p162
asS'1101'
p163
(lp164
S'001011100000011010001001100111011010101011100000100011010001'
p165
asa(dp166
S'0110'
p167
(lp168
S'001000000000000000000010010110010001000101110100001001111011'
p169
asS'0111'
p170
(lp171
S'001000000000000000000000111111001111000110010100010010100011'
p172
asS'0000'
p173
(lp174
S'001000000000000000000001011010111110010001010010111010110100'
p175
asS'0001'
p176
(lp177
S'001000000000000000000001000111011000011001001001101111110100'
p178
aS'001000000000000000000010100000110101010101011000011101001001'
p179
aS'001000000000000001000010110111010100100010000100000111001100'
p180
asS'0010'
p181
(lp182
S'001000000000000000000011000000111100111101101010011101000111'
p183
asS'0101'
p184
(lp185
S'000000000000000000000010001001111101101010110111100001100100'
p186
aS'000000000000000000000010011101001000110101100100111000100000'
p187
aS'001000000000000000000011101000011011100100110110001100001001'
p188
aS'001011000000000010000110011011001011100001000100001010100000'
p189
aS'001000000000000000000011111000101111100111010111110110111110'
p190
asS'0100'
p191
(lp192
S'001000000010000000100010110000001110110001001110111111100001'
p193
asS'1111'
p194
(lp195
S'001000000000000000000010001010110010010001010111101100000101'
p196
asS'1100'
p197
(lp198
S'000000000000000000000011000110000000110000111111011110111000'
p199
aS'000000000000000000000010000110010110111011101010111110110000'
p200
asS'1101'
p201
(lp202
S'000000000000000000000011111110010010000011101111110001101111'
p203
aS'000000000000000000000010010001001010010010000011010001010001'
p204
asS'1001'
p205
(lp206
S'001011100000011010001101100111011010101011100000100011010001'
p207
aS'000000000000000000000010110111001101101000011011110001100100'
p208
asa(dp209
S'0110'
p210
(lp211
S'001000000000000000000001000010111110010001010010111010110100'
p212
aS'001011000000000010000110010111001011100001000100001010100000'
p213
asS'0111'
p214
(lp215
S'000000000000000000000010010101001000110101100100111000100000'
p216
asS'0000'
p217
(lp218
S'001000000000000000000011001000111100111101101010011101000111'
p219
asS'0001'
p220
(lp221
S'001000000000000000000001000111011000011001001001101111110100'
p222
aS'000000000000000000000011110010000000110000111111011110111000'
p223
aS'000000000000000000000010110010010110111011101010111110110000'
p224
asS'0010'
p225
(lp226
S'000000000000000000000010010101111101101010110111100001100100'
p227
aS'001000000000000000000010111110110010010001010111101100000101'
p228
asS'0101'
p229
(lp230
S'001000000000000000000010011010010001000101110100001001111011'
p231
asS'0100'
p232
(lp233
S'000000000000000000000010110101001010010010000011010001010001'
p234
asS'1111'
p235
(lp236
S'000000000000000000000011110110010010000011101111110001101111'
p237
aS'001000000000000000000000011111001111000110010100010010100011'
p238
asS'1110'
p239
(lp240
S'001000000000000000000011010100101111100111010111110110111110'
p241
asS'1100'
p242
(lp243
S'001000000010000000100010010000001110110001001110111111100001'
p244
asS'1101'
p245
(lp246
S'001000000000000001000010000111010100100010000100000111001100'
p247
aS'000000000000000000000010100111001101101000011011110001100100'
p248
asS'1010'
p249
(lp250
S'001000000000000000000011010100011011100100110110001100001001'
p251
asS'1001'
p252
(lp253
S'001011100000011010001101100111011010101011100000100011010001'
p254
asS'1000'
p255
(lp256
S'001000000000000000000010000100110101010101011000011101001001'
p257
asa(dp258
S'0111'
p259
(lp260
S'000000000000000000000010010100101101101010110111100001100100'
p261
asS'0000'
p262
(lp263
S'001000000010000000100010010011001110110001001110111111100001'
p264
asS'0001'
p265
(lp266
S'001000000000000000000011010110101011100100110110001100001001'
p267
asS'0011'
p268
(lp269
S'001000000000000000000010000110000101010101011000011101001001'
p270
aS'001000000000000000000011001000001100111101101010011101000111'
p271
asS'0010'
p272
(lp273
S'001000000000000000000011010111101111100111010111110110111110'
p274
asS'0100'
p275
(lp276
S'000000000000000000000010110101001010010010000011010001010001'
p277
aS'000000000000000000000010010101111000110101100100111000100000'
p278
asS'1100'
p279
(lp280
S'001011000000000010000110010101101011100001000100001010100000'
p281
aS'000000000000000000000010100111011101101000011011110001100100'
p282
aS'001000000000000000000000011111111111000110010100010010100011'
p283
asS'1101'
p284
(lp285
S'001011100000011010001101100110011010101011100000100011010001'
p286
aS'001000000000000000000001000100011000011001001001101111110100'
p287
aS'001000000000000001000010000111010100100010000100000111001100'
p288
asS'1011'
p289
(lp290
S'001000000000000000000001000001101110010001010010111010110100'
p291
aS'001000000000000000000010111100100010010001010111101100000101'
p292
asS'1001'
p293
(lp294
S'000000000000000000000011110111110010000011101111110001101111'
p295
aS'000000000000000000000010110000010110111011101010111110110000'
p296
aS'001000000000000000000010011001010001000101110100001001111011'
p297
asS'1000'
p298
(lp299
S'000000000000000000000011110000010000110000111111011110111000'
p300
asa(dp301
S'0110'
p302
(lp303
S'000000000000000000000010110000011001111011101010111110110000'
p304
asS'0000'
p305
(lp306
S'000000000000000000000011110000011000110000111111011110111000'
p307
asS'0001'
p308
(lp309
S'001000000000000000000010011001011001000101110100001001111011'
p310
asS'0010'
p311
(lp312
S'000000000000000000000011110111111001000011101111110001101111'
p313
aS'001000000000000000000010111100101011010001010111101100000101'
p314
asS'0101'
p315
(lp316
S'001000000000000000000010000110000011010101011000011101001001'
p317
asS'0100'
p318
(lp319
S'001000000000000001000010000111011101100010000100000111001100'
p320
asS'1111'
p321
(lp322
S'001000000000000000000011010111100010100111010111110110111110'
p323
aS'001000000000000000000000011111111100000110010100010010100011'
p324
asS'1110'
p325
(lp326
S'001000000010000000100010010011000000110001001110111111100001'
p327
aS'001000000000000000000001000001101011010001010010111010110100'
p328
asS'1100'
p329
(lp330
S'001000000000000000000011001000000011111101101010011101000111'
p331
asS'1101'
p332
(lp333
S'000000000000000000000010010100100111101010110111100001100100'
p334
aS'000000000000000000000010100111011100101000011011110001100100'
p335
asS'1010'
p336
(lp337
S'001011100000011010001101100110011101101011100000100011010001'
p338
aS'000000000000000000000010110101000100010010000011010001010001'
p339
asS'1011'
p340
(lp341
S'001000000000000000000011010110100001100100110110001100001001'
p342
aS'001011000000000010000110010101101100100001000100001010100000'
p343
asS'1000'
p344
(lp345
S'001000000000000000000001000100011101011001001001101111110100'
p346
aS'000000000000000000000010010101110100110101100100111000100000'
p347
asa(dp348
S'0110'
p349
(lp350
S'001000000000000000000001000100011101100001001001101111110100'
p351
asS'0000'
p352
(lp353
S'000000000000000000000011110111111001001011101111110001101111'
p354
asS'0001'
p355
(lp356
S'001000000000000000000000011111111100111110010100010010100011'
p357
aS'001000000000000000000010011001011001000101110100001001111011'
p358
asS'0101'
p359
(lp360
S'001000000000000000000010000110000011010101011000011101001001'
p361
asS'0100'
p362
(lp363
S'000000000000000000000010110101000100101010000011010001010001'
p364
aS'001000000000000000000001000001101011111001010010111010110100'
p365
aS'001000000000000000000010111100101011001001010111101100000101'
p366
asS'1111'
p367
(lp368
S'001000000000000000000011001000000011110001101010011101000111'
p369
asS'1110'
p370
(lp371
S'000000000000000000000010110000011001011011101010111110110000'
p372
asS'1100'
p373
(lp374
S'001000000010000000100010010011000000111001001110111111100001'
p375
aS'000000000000000000000011110000011000000000111111011110111000'
p376
asS'1101'
p377
(lp378
S'000000000000000000000010010101110100100001100100111000100000'
p379
asS'1010'
p380
(lp381
S'001011100000011010001101100110011101101011100000100011010001'
p382
aS'000000000000000000000010010100100111110110110111100001100100'
p383
aS'000000000000000000000010100111011100110100011011110001100100'
p384
asS'1001'
p385
(lp386
S'001000000000000000000011010110100001101100110110001100001001'
p387
aS'001000000000000000000011010111100010111111010111110110111110'
p388
asS'1000'
p389
(lp390
S'001011000000000010000110010101101100101101000100001010100000'
p391
aS'001000000000000001000010000111011101010010000100000111001100'
p392
asa(dp393
S'0110'
p394
(lp395
S'000000000000000000000010010101110100100011010100111000100000'
p396
aS'001000000000000000000011001000000011110011111010011101000111'
p397
asS'0111'
p398
(lp399
S'001000000000000000000010011001011001000100010100001001111011'
p400
asS'0001'
p401
(lp402
S'000000000000000000000010100111011100110110101011110001100100'
p403
asS'0011'
p404
(lp405
S'001000000000000000000011010110100001101110010110001100001001'
p406
aS'000000000000000000000011110000011000000011001111011110111000'
p407
asS'0101'
p408
(lp409
S'001000000000000000000001000001101011111001000010111010110100'
p410
aS'001000000000000000000010111100101011001001000111101100000101'
p411
aS'001000000000000000000010000110000011010101011000011101001001'
p412
asS'0100'
p413
(lp414
S'001000000010000000100010010011000000111011001110111111100001'
p415
aS'001000000000000000000001000100011101100001101001101111110100'
p416
aS'001011000000000010000110010101101100101110000100001010100000'
p417
asS'1110'
p418
(lp419
S'000000000000000000000011110111111001001000001111110001101111'
p420
aS'001011100000011010001101100110011101101010100000100011010001'
p421
aS'000000000000000000000010110000011001011011101010111110110000'
p422
asS'1101'
p423
(lp424
S'001000000000000000000011010111100010111110010111110110111110'
p425
asS'1011'
p426
(lp427
S'000000000000000000000010010100100111110110100111100001100100'
p428
asS'1001'
p429
(lp430
S'001000000000000000000000011111111100111100010100010010100011'
p431
asS'1000'
p432
(lp433
S'000000000000000000000010110101000100101001000011010001010001'
p434
aS'001000000000000001000010000111011101010010000100000111001100'
p435
asa(dp436
S'0110'
p437
(lp438
S'001000000000000000000011010110100001101110010011001100001001'
p439
asS'0111'
p440
(lp441
S'000000000000000000000010010100100111110110101011100001100100'
p442
aS'001000000000000000000011010111100010111110011101110110111110'
p443
aS'001000000000000000000010111100101011001001000101101100000101'
p444
asS'0000'
p445
(lp446
S'001011100000011010001101100110011101101010101110100011010001'
p447
asS'0011'
p448
(lp449
S'000000000000000000000010110101000100101001001000010001010001'
p450
asS'0010'
p451
(lp452
S'001000000000000000000001000001101011111001000101111010110100'
p453
asS'0100'
p454
(lp455
S'000000000000000000000010010101110100100011010110111000100000'
p456
aS'001011000000000010000110010101101100101110000100001010100000'
p457
aS'001000000000000001000010000111011101010010001000000111001100'
p458
aS'001000000000000000000000011111111100111100011001010010100011'
p459
aS'001000000000000000000010011001011001000100010111001001111011'
p460
asS'1111'
p461
(lp462
S'000000000000000000000011110111111001001000001110110001101111'
p463
aS'000000000000000000000011110000011000000011000011011110111000'
p464
asS'1110'
p465
(lp466
S'001000000010000000100010010011000000111011000100111111100001'
p467
asS'1010'
p468
(lp469
S'000000000000000000000010110000011001011011101110111110110000'
p470
aS'001000000000000000000011001000000011110011110110011101000111'
p471
asS'1011'
p472
(lp473
S'000000000000000000000010100111011100110110100001110001100100'
p474
asS'1001'
p475
(lp476
S'001000000000000000000001000100011101100001100100101111110100'
p477
asS'1000'
p478
(lp479
S'001000000000000000000010000110000011010101010101011101001001'
p480
asa(dp481
S'0111'
p482
(lp483
S'001000000000000000000010000110000011010101010101100001001001'
p484
aS'000000000000000000000011110000011000000011000011111110111000'
p485
aS'001000000000000000000011001000000011110011110110101001000111'
p486
asS'0001'
p487
(lp488
S'001000000000000001000010000111011101010010001000010011001100'
p489
asS'0011'
p490
(lp491
S'001000000000000000000011010110100001101110010011011000001001'
p492
asS'0010'
p493
(lp494
S'001011000000000010000110010101101100101110000100010010100000'
p495
aS'001000000000000000000010011001011001000100010111010001111011'
p496
asS'0100'
p497
(lp498
S'000000000000000000000010110101000100101001001000001101010001'
p499
aS'001000000000000000000000011111111100111100011001010010100011'
p500
asS'1111'
p501
(lp502
S'001000000010000000100010010011000000111011000100111011100001'
p503
aS'000000000000000000000010110000011001011011101110101010110000'
p504
asS'1110'
p505
(lp506
S'000000000000000000000010010101110100100011010110010000100000'
p507
aS'001000000000000000000001000001101011111001000101001010110100'
p508
asS'1100'
p509
(lp510
S'000000000000000000000011110111111001001000001110111101101111'
p511
aS'000000000000000000000010100111011100110110100001101101100100'
p512
asS'1101'
p513
(lp514
S'001000000000000000000011010111100010111110011101011110111110'
p515
asS'1011'
p516
(lp517
S'001000000000000000000001000100011101100001100100100111110100'
p518
aS'001000000000000000000010111100101011001001000101011100000101'
p519
asS'1000'
p520
(lp521
S'001011100000011010001101100110011101101010101110000011010001'
p522
aS'000000000000000000000010010100100111110110101011011101100100'
p523
asa(dp524
S'0110'
p525
(lp526
S'000000000000000000000011110111111001001000001110111111001111'
p527
aS'000000000000000000000010010100100111110110101011011110000100'
p528
aS'000000000000000000000010100111011100110110100001101111000100'
p529
asS'0111'
p530
(lp531
S'001000000000000000000010011001011001000100010111010000101011'
p532
asS'0000'
p533
(lp534
S'001000000000000000000011010110100001101110010011011000111001'
p535
aS'001000000000000000000010111100101011001001000101011110110101'
p536
asS'0010'
p537
(lp538
S'000000000000000000000010010101110100100011010110010011100000'
p539
asS'0101'
p540
(lp541
S'000000000000000000000010110101000100101001001000001101000001'
p542
asS'0100'
p543
(lp544
S'001000000000000000000010000110000011010101010101100001111001'
p545
aS'001000000000000000000011001000000011110011110110101001110111'
p546
asS'1111'
p547
(lp548
S'001000000000000000000001000100011101100001100100100110110100'
p549
asS'1110'
p550
(lp551
S'001000000010000000100010010011000000111011000100111011110001'
p552
asS'1100'
p553
(lp554
S'001000000000000001000010000111011101010010001000010000011100'
p555
asS'1101'
p556
(lp557
S'001011100000011010001101100110011101101010101110000010000001'
p558
asS'1010'
p559
(lp560
S'001011000000000010000110010101101100101110000100010000100000'
p561
aS'001000000000000000000000011111111100111100011001010001000011'
p562
asS'1011'
p563
(lp564
S'001000000000000000000001000001101011111001000101001011100100'
p565
aS'001000000000000000000011010111100010111110011101011111011110'
p566
aS'000000000000000000000011110000011000000011000011111101111000'
p567
aS'000000000000000000000010110000011001011011101110101011110000'
p568
asa(dp569
S'0111'
p570
(lp571
S'001000000000000000000011001000000011110011110110101001110100'
p572
asS'0000'
p573
(lp574
S'000000000000000000000010010101110100100011010110010011100010'
p575
aS'001011000000000010000110010101101100101110000100010000101010'
p576
aS'000000000000000000000010110000011001011011101110101011111011'
p577
asS'0001'
p578
(lp579
S'001000000010000000100010010011000000111011000100111011111110'
p580
aS'001011100000011010001101100110011101101010101110000010001101'
p581
aS'000000000000000000000010110101000100101001001000001101000101'
p582
asS'0011'
p583
(lp584
S'001000000000000000000000011111111100111100011001010001001010'
p585
asS'0101'
p586
(lp587
S'001000000000000000000010111100101011001001000101011110110000'
p588
asS'0100'
p589
(lp590
S'000000000000000000000010010100100111110110101011011110000110'
p591
aS'001000000000000000000001000100011101100001100100100110111111'
p592
aS'001000000000000000000001000001101011111001000101001011101011'
p593
aS'000000000000000000000010100111011100110110100001101111000110'
p594
asS'1111'
p595
(lp596
S'000000000000000000000011110111111001001000001110111111000110'
p597
asS'1110'
p598
(lp599
S'001000000000000000000011010111100010111110011101011111011011'
p600
asS'1100'
p601
(lp602
S'001000000000000001000010000111011101010010001000010000011100'
p603
asS'1011'
p604
(lp605
S'001000000000000000000010011001011001000100010111010000100111'
p606
asS'1001'
p607
(lp608
S'001000000000000000000011010110100001101110010011011000110000'
p609
aS'001000000000000000000010000110000011010101010101100001110100'
p610
asS'1000'
p611
(lp612
S'000000000000000000000011110000011000000011000011111101111011'
p613
asa.